Archive member included to satisfy reference by file (symbol)

/usr/local/mcuxpressoide-11.1.0_3209/ide/plugins/com.nxp.mcuxpresso.tools.linux_11.1.0.201909161352/tools/bin/../lib/gcc/arm-none-eabi/8.3.1/../../../../arm-none-eabi/lib/thumb/v7e-m+dp/hard/libcr_semihost_nf.a(_cr__main.o)
                              ./startup/startup_mimxrt1021.o (__main)
/usr/local/mcuxpressoide-11.1.0_3209/ide/plugins/com.nxp.mcuxpresso.tools.linux_11.1.0.201909161352/tools/bin/../lib/gcc/arm-none-eabi/8.3.1/../../../../arm-none-eabi/lib/thumb/v7e-m+dp/hard/libcr_c.a(memset.o)
                              ./drivers/fsl_lpspi.o (memset)
/usr/local/mcuxpressoide-11.1.0_3209/ide/plugins/com.nxp.mcuxpresso.tools.linux_11.1.0.201909161352/tools/bin/../lib/gcc/arm-none-eabi/8.3.1/../../../../arm-none-eabi/lib/thumb/v7e-m+dp/hard/libcr_c.a(alloc.o)
                              ./drivers/fsl_common.o (malloc)
/usr/local/mcuxpressoide-11.1.0_3209/ide/plugins/com.nxp.mcuxpresso.tools.linux_11.1.0.201909161352/tools/bin/../lib/gcc/arm-none-eabi/8.3.1/../../../../arm-none-eabi/lib/thumb/v7e-m+dp/hard/libcr_c.a(initio.o)
                              /usr/local/mcuxpressoide-11.1.0_3209/ide/plugins/com.nxp.mcuxpresso.tools.linux_11.1.0.201909161352/tools/bin/../lib/gcc/arm-none-eabi/8.3.1/../../../../arm-none-eabi/lib/thumb/v7e-m+dp/hard/libcr_semihost_nf.a(_cr__main.o) (_initio)
/usr/local/mcuxpressoide-11.1.0_3209/ide/plugins/com.nxp.mcuxpresso.tools.linux_11.1.0.201909161352/tools/bin/../lib/gcc/arm-none-eabi/8.3.1/../../../../arm-none-eabi/lib/thumb/v7e-m+dp/hard/libcr_c.a(printf.o)
                              ./utilities/fsl_assert.o (_printf)
/usr/local/mcuxpressoide-11.1.0_3209/ide/plugins/com.nxp.mcuxpresso.tools.linux_11.1.0.201909161352/tools/bin/../lib/gcc/arm-none-eabi/8.3.1/../../../../arm-none-eabi/lib/thumb/v7e-m+dp/hard/libcr_c.a(setvbuf.o)
                              /usr/local/mcuxpressoide-11.1.0_3209/ide/plugins/com.nxp.mcuxpresso.tools.linux_11.1.0.201909161352/tools/bin/../lib/gcc/arm-none-eabi/8.3.1/../../../../arm-none-eabi/lib/thumb/v7e-m+dp/hard/libcr_c.a(initio.o) (setvbuf)
/usr/local/mcuxpressoide-11.1.0_3209/ide/plugins/com.nxp.mcuxpresso.tools.linux_11.1.0.201909161352/tools/bin/../lib/gcc/arm-none-eabi/8.3.1/../../../../arm-none-eabi/lib/thumb/v7e-m+dp/hard/libcr_c.a(strlen.o)
                              ./utilities/fsl_str.o (strlen)
/usr/local/mcuxpressoide-11.1.0_3209/ide/plugins/com.nxp.mcuxpresso.tools.linux_11.1.0.201909161352/tools/bin/../lib/gcc/arm-none-eabi/8.3.1/../../../../arm-none-eabi/lib/thumb/v7e-m+dp/hard/libcr_c.a(memcpy.o)
                              /usr/local/mcuxpressoide-11.1.0_3209/ide/plugins/com.nxp.mcuxpresso.tools.linux_11.1.0.201909161352/tools/bin/../lib/gcc/arm-none-eabi/8.3.1/../../../../arm-none-eabi/lib/thumb/v7e-m+dp/hard/libcr_c.a(alloc.o) (memcpy)
/usr/local/mcuxpressoide-11.1.0_3209/ide/plugins/com.nxp.mcuxpresso.tools.linux_11.1.0.201909161352/tools/bin/../lib/gcc/arm-none-eabi/8.3.1/../../../../arm-none-eabi/lib/thumb/v7e-m+dp/hard/libcr_c.a(__init_alloc.o)
                              /usr/local/mcuxpressoide-11.1.0_3209/ide/plugins/com.nxp.mcuxpresso.tools.linux_11.1.0.201909161352/tools/bin/../lib/gcc/arm-none-eabi/8.3.1/../../../../arm-none-eabi/lib/thumb/v7e-m+dp/hard/libcr_c.a(alloc.o) (__heaps)
/usr/local/mcuxpressoide-11.1.0_3209/ide/plugins/com.nxp.mcuxpresso.tools.linux_11.1.0.201909161352/tools/bin/../lib/gcc/arm-none-eabi/8.3.1/../../../../arm-none-eabi/lib/thumb/v7e-m+dp/hard/libcr_c.a(_cr_sbrk.o)
                              /usr/local/mcuxpressoide-11.1.0_3209/ide/plugins/com.nxp.mcuxpresso.tools.linux_11.1.0.201909161352/tools/bin/../lib/gcc/arm-none-eabi/8.3.1/../../../../arm-none-eabi/lib/thumb/v7e-m+dp/hard/libcr_c.a(alloc.o) (_sbrk)
/usr/local/mcuxpressoide-11.1.0_3209/ide/plugins/com.nxp.mcuxpresso.tools.linux_11.1.0.201909161352/tools/bin/../lib/gcc/arm-none-eabi/8.3.1/../../../../arm-none-eabi/lib/thumb/v7e-m+dp/hard/libcr_c.a(_deferredlazyseek.o)
                              /usr/local/mcuxpressoide-11.1.0_3209/ide/plugins/com.nxp.mcuxpresso.tools.linux_11.1.0.201909161352/tools/bin/../lib/gcc/arm-none-eabi/8.3.1/../../../../arm-none-eabi/lib/thumb/v7e-m+dp/hard/libcr_c.a(printf.o) (__flsbuf)
/usr/local/mcuxpressoide-11.1.0_3209/ide/plugins/com.nxp.mcuxpresso.tools.linux_11.1.0.201909161352/tools/bin/../lib/gcc/arm-none-eabi/8.3.1/../../../../arm-none-eabi/lib/thumb/v7e-m+dp/hard/libcr_c.a(_fdopen.o)
                              /usr/local/mcuxpressoide-11.1.0_3209/ide/plugins/com.nxp.mcuxpresso.tools.linux_11.1.0.201909161352/tools/bin/../lib/gcc/arm-none-eabi/8.3.1/../../../../arm-none-eabi/lib/thumb/v7e-m+dp/hard/libcr_c.a(initio.o) (_fdopen)
/usr/local/mcuxpressoide-11.1.0_3209/ide/plugins/com.nxp.mcuxpresso.tools.linux_11.1.0.201909161352/tools/bin/../lib/gcc/arm-none-eabi/8.3.1/../../../../arm-none-eabi/lib/thumb/v7e-m+dp/hard/libcr_c.a(_fflush.o)
                              /usr/local/mcuxpressoide-11.1.0_3209/ide/plugins/com.nxp.mcuxpresso.tools.linux_11.1.0.201909161352/tools/bin/../lib/gcc/arm-none-eabi/8.3.1/../../../../arm-none-eabi/lib/thumb/v7e-m+dp/hard/libcr_c.a(_deferredlazyseek.o) (_fflush)
/usr/local/mcuxpressoide-11.1.0_3209/ide/plugins/com.nxp.mcuxpresso.tools.linux_11.1.0.201909161352/tools/bin/../lib/gcc/arm-none-eabi/8.3.1/../../../../arm-none-eabi/lib/thumb/v7e-m+dp/hard/libcr_c.a(_writebuf.o)
                              /usr/local/mcuxpressoide-11.1.0_3209/ide/plugins/com.nxp.mcuxpresso.tools.linux_11.1.0.201909161352/tools/bin/../lib/gcc/arm-none-eabi/8.3.1/../../../../arm-none-eabi/lib/thumb/v7e-m+dp/hard/libcr_c.a(_deferredlazyseek.o) (_Cwritebuf)
/usr/local/mcuxpressoide-11.1.0_3209/ide/plugins/com.nxp.mcuxpresso.tools.linux_11.1.0.201909161352/tools/bin/../lib/gcc/arm-none-eabi/8.3.1/../../../../arm-none-eabi/lib/thumb/v7e-m+dp/hard/libcr_c.a(errno.o)
                              /usr/local/mcuxpressoide-11.1.0_3209/ide/plugins/com.nxp.mcuxpresso.tools.linux_11.1.0.201909161352/tools/bin/../lib/gcc/arm-none-eabi/8.3.1/../../../../arm-none-eabi/lib/thumb/v7e-m+dp/hard/libcr_c.a(_cr_sbrk.o) (errno)
/usr/local/mcuxpressoide-11.1.0_3209/ide/plugins/com.nxp.mcuxpresso.tools.linux_11.1.0.201909161352/tools/bin/../lib/gcc/arm-none-eabi/8.3.1/../../../../arm-none-eabi/lib/thumb/v7e-m+dp/hard/libcr_c.a(fclose.o)
                              /usr/local/mcuxpressoide-11.1.0_3209/ide/plugins/com.nxp.mcuxpresso.tools.linux_11.1.0.201909161352/tools/bin/../lib/gcc/arm-none-eabi/8.3.1/../../../../arm-none-eabi/lib/thumb/v7e-m+dp/hard/libcr_c.a(initio.o) (fclose)
/usr/local/mcuxpressoide-11.1.0_3209/ide/plugins/com.nxp.mcuxpresso.tools.linux_11.1.0.201909161352/tools/bin/../lib/gcc/arm-none-eabi/8.3.1/../../../../arm-none-eabi/lib/thumb/v7e-m+dp/hard/libcr_c.a(fflush.o)
                              /usr/local/mcuxpressoide-11.1.0_3209/ide/plugins/com.nxp.mcuxpresso.tools.linux_11.1.0.201909161352/tools/bin/../lib/gcc/arm-none-eabi/8.3.1/../../../../arm-none-eabi/lib/thumb/v7e-m+dp/hard/libcr_c.a(fclose.o) (fflush)
/usr/local/mcuxpressoide-11.1.0_3209/ide/plugins/com.nxp.mcuxpresso.tools.linux_11.1.0.201909161352/tools/bin/../lib/gcc/arm-none-eabi/8.3.1/../../../../arm-none-eabi/lib/thumb/v7e-m+dp/hard/libcr_c.a(fseek.o)
                              /usr/local/mcuxpressoide-11.1.0_3209/ide/plugins/com.nxp.mcuxpresso.tools.linux_11.1.0.201909161352/tools/bin/../lib/gcc/arm-none-eabi/8.3.1/../../../../arm-none-eabi/lib/thumb/v7e-m+dp/hard/libcr_c.a(_deferredlazyseek.o) (fseek)
/usr/local/mcuxpressoide-11.1.0_3209/ide/plugins/com.nxp.mcuxpresso.tools.linux_11.1.0.201909161352/tools/bin/../lib/gcc/arm-none-eabi/8.3.1/../../../../arm-none-eabi/lib/thumb/v7e-m+dp/hard/libcr_c.a(ftell.o)
                              /usr/local/mcuxpressoide-11.1.0_3209/ide/plugins/com.nxp.mcuxpresso.tools.linux_11.1.0.201909161352/tools/bin/../lib/gcc/arm-none-eabi/8.3.1/../../../../arm-none-eabi/lib/thumb/v7e-m+dp/hard/libcr_c.a(fseek.o) (ftell)
/usr/local/mcuxpressoide-11.1.0_3209/ide/plugins/com.nxp.mcuxpresso.tools.linux_11.1.0.201909161352/tools/bin/../lib/gcc/arm-none-eabi/8.3.1/../../../../arm-none-eabi/lib/thumb/v7e-m+dp/hard/libcr_c.a(remove.o)
                              /usr/local/mcuxpressoide-11.1.0_3209/ide/plugins/com.nxp.mcuxpresso.tools.linux_11.1.0.201909161352/tools/bin/../lib/gcc/arm-none-eabi/8.3.1/../../../../arm-none-eabi/lib/thumb/v7e-m+dp/hard/libcr_c.a(fclose.o) (remove)
/usr/local/mcuxpressoide-11.1.0_3209/ide/plugins/com.nxp.mcuxpresso.tools.linux_11.1.0.201909161352/tools/bin/../lib/gcc/arm-none-eabi/8.3.1/../../../../arm-none-eabi/lib/thumb/v7e-m+dp/hard/libcr_c.a(_cr_check_heap.o)
                              /usr/local/mcuxpressoide-11.1.0_3209/ide/plugins/com.nxp.mcuxpresso.tools.linux_11.1.0.201909161352/tools/bin/../lib/gcc/arm-none-eabi/8.3.1/../../../../arm-none-eabi/lib/thumb/v7e-m+dp/hard/libcr_c.a(_cr_sbrk.o) (__check_heap_overflow)
/usr/local/mcuxpressoide-11.1.0_3209/ide/plugins/com.nxp.mcuxpresso.tools.linux_11.1.0.201909161352/tools/bin/../lib/gcc/arm-none-eabi/8.3.1/../../../../arm-none-eabi/lib/thumb/v7e-m+dp/hard/libcr_c.a(_do_fflush.o)
                              /usr/local/mcuxpressoide-11.1.0_3209/ide/plugins/com.nxp.mcuxpresso.tools.linux_11.1.0.201909161352/tools/bin/../lib/gcc/arm-none-eabi/8.3.1/../../../../arm-none-eabi/lib/thumb/v7e-m+dp/hard/libcr_c.a(fflush.o) (_do_fflush)
/usr/local/mcuxpressoide-11.1.0_3209/ide/plugins/com.nxp.mcuxpresso.tools.linux_11.1.0.201909161352/tools/bin/../lib/gcc/arm-none-eabi/8.3.1/thumb/v7e-m+dp/hard/libcr_eabihelpers.a(division_64.o)
                              ./drivers/fsl_common.o (__aeabi_uldivmod)
/usr/local/mcuxpressoide-11.1.0_3209/ide/plugins/com.nxp.mcuxpresso.tools.linux_11.1.0.201909161352/tools/bin/../lib/gcc/arm-none-eabi/8.3.1/thumb/v7e-m+dp/hard/libcr_eabihelpers.a(division_idiv0.o)
                              /usr/local/mcuxpressoide-11.1.0_3209/ide/plugins/com.nxp.mcuxpresso.tools.linux_11.1.0.201909161352/tools/bin/../lib/gcc/arm-none-eabi/8.3.1/thumb/v7e-m+dp/hard/libcr_eabihelpers.a(division_64.o) (__aeabi_idiv0)
/usr/local/mcuxpressoide-11.1.0_3209/ide/plugins/com.nxp.mcuxpresso.tools.linux_11.1.0.201909161352/tools/bin/../lib/gcc/arm-none-eabi/8.3.1/thumb/v7e-m+dp/hard/libcr_eabihelpers.a(memcpy.o)
                              /usr/local/mcuxpressoide-11.1.0_3209/ide/plugins/com.nxp.mcuxpresso.tools.linux_11.1.0.201909161352/tools/bin/../lib/gcc/arm-none-eabi/8.3.1/../../../../arm-none-eabi/lib/thumb/v7e-m+dp/hard/libcr_c.a(memcpy.o) (__aeabi_memcpy)
/usr/local/mcuxpressoide-11.1.0_3209/ide/plugins/com.nxp.mcuxpresso.tools.linux_11.1.0.201909161352/tools/bin/../lib/gcc/arm-none-eabi/8.3.1/../../../../arm-none-eabi/lib/thumb/v7e-m+dp/hard/libcr_semihost_nf.a(__ciob.o)
                              /usr/local/mcuxpressoide-11.1.0_3209/ide/plugins/com.nxp.mcuxpresso.tools.linux_11.1.0.201909161352/tools/bin/../lib/gcc/arm-none-eabi/8.3.1/../../../../arm-none-eabi/lib/thumb/v7e-m+dp/hard/libcr_c.a(initio.o) (__Ciob)
/usr/local/mcuxpressoide-11.1.0_3209/ide/plugins/com.nxp.mcuxpresso.tools.linux_11.1.0.201909161352/tools/bin/../lib/gcc/arm-none-eabi/8.3.1/../../../../arm-none-eabi/lib/thumb/v7e-m+dp/hard/libcr_semihost_nf.a(__sys_appexit.o)
                              /usr/local/mcuxpressoide-11.1.0_3209/ide/plugins/com.nxp.mcuxpresso.tools.linux_11.1.0.201909161352/tools/bin/../lib/gcc/arm-none-eabi/8.3.1/../../../../arm-none-eabi/lib/thumb/v7e-m+dp/hard/libcr_c.a(alloc.o) (__sys_appexit)
/usr/local/mcuxpressoide-11.1.0_3209/ide/plugins/com.nxp.mcuxpresso.tools.linux_11.1.0.201909161352/tools/bin/../lib/gcc/arm-none-eabi/8.3.1/../../../../arm-none-eabi/lib/thumb/v7e-m+dp/hard/libcr_semihost_nf.a(__sys_close.o)
                              /usr/local/mcuxpressoide-11.1.0_3209/ide/plugins/com.nxp.mcuxpresso.tools.linux_11.1.0.201909161352/tools/bin/../lib/gcc/arm-none-eabi/8.3.1/../../../../arm-none-eabi/lib/thumb/v7e-m+dp/hard/libcr_c.a(fclose.o) (__sys_close)
/usr/local/mcuxpressoide-11.1.0_3209/ide/plugins/com.nxp.mcuxpresso.tools.linux_11.1.0.201909161352/tools/bin/../lib/gcc/arm-none-eabi/8.3.1/../../../../arm-none-eabi/lib/thumb/v7e-m+dp/hard/libcr_semihost_nf.a(__sys_flen.o)
                              /usr/local/mcuxpressoide-11.1.0_3209/ide/plugins/com.nxp.mcuxpresso.tools.linux_11.1.0.201909161352/tools/bin/../lib/gcc/arm-none-eabi/8.3.1/../../../../arm-none-eabi/lib/thumb/v7e-m+dp/hard/libcr_c.a(_writebuf.o) (__sys_flen)
/usr/local/mcuxpressoide-11.1.0_3209/ide/plugins/com.nxp.mcuxpresso.tools.linux_11.1.0.201909161352/tools/bin/../lib/gcc/arm-none-eabi/8.3.1/../../../../arm-none-eabi/lib/thumb/v7e-m+dp/hard/libcr_semihost_nf.a(__sys_istty.o)
                              /usr/local/mcuxpressoide-11.1.0_3209/ide/plugins/com.nxp.mcuxpresso.tools.linux_11.1.0.201909161352/tools/bin/../lib/gcc/arm-none-eabi/8.3.1/../../../../arm-none-eabi/lib/thumb/v7e-m+dp/hard/libcr_c.a(_deferredlazyseek.o) (__sys_istty)
/usr/local/mcuxpressoide-11.1.0_3209/ide/plugins/com.nxp.mcuxpresso.tools.linux_11.1.0.201909161352/tools/bin/../lib/gcc/arm-none-eabi/8.3.1/../../../../arm-none-eabi/lib/thumb/v7e-m+dp/hard/libcr_semihost_nf.a(__sys_remove.o)
                              /usr/local/mcuxpressoide-11.1.0_3209/ide/plugins/com.nxp.mcuxpresso.tools.linux_11.1.0.201909161352/tools/bin/../lib/gcc/arm-none-eabi/8.3.1/../../../../arm-none-eabi/lib/thumb/v7e-m+dp/hard/libcr_c.a(remove.o) (__sys_remove)
/usr/local/mcuxpressoide-11.1.0_3209/ide/plugins/com.nxp.mcuxpresso.tools.linux_11.1.0.201909161352/tools/bin/../lib/gcc/arm-none-eabi/8.3.1/../../../../arm-none-eabi/lib/thumb/v7e-m+dp/hard/libcr_semihost_nf.a(__sys_rename.o)
                              /usr/local/mcuxpressoide-11.1.0_3209/ide/plugins/com.nxp.mcuxpresso.tools.linux_11.1.0.201909161352/tools/bin/../lib/gcc/arm-none-eabi/8.3.1/../../../../arm-none-eabi/lib/thumb/v7e-m+dp/hard/libcr_c.a(remove.o) (__sys_rename)
/usr/local/mcuxpressoide-11.1.0_3209/ide/plugins/com.nxp.mcuxpresso.tools.linux_11.1.0.201909161352/tools/bin/../lib/gcc/arm-none-eabi/8.3.1/../../../../arm-none-eabi/lib/thumb/v7e-m+dp/hard/libcr_semihost_nf.a(__sys_seek.o)
                              /usr/local/mcuxpressoide-11.1.0_3209/ide/plugins/com.nxp.mcuxpresso.tools.linux_11.1.0.201909161352/tools/bin/../lib/gcc/arm-none-eabi/8.3.1/../../../../arm-none-eabi/lib/thumb/v7e-m+dp/hard/libcr_c.a(_writebuf.o) (__sys_seek)
/usr/local/mcuxpressoide-11.1.0_3209/ide/plugins/com.nxp.mcuxpresso.tools.linux_11.1.0.201909161352/tools/bin/../lib/gcc/arm-none-eabi/8.3.1/../../../../arm-none-eabi/lib/thumb/v7e-m+dp/hard/libcr_semihost_nf.a(__sys_tmpnam.o)
                              /usr/local/mcuxpressoide-11.1.0_3209/ide/plugins/com.nxp.mcuxpresso.tools.linux_11.1.0.201909161352/tools/bin/../lib/gcc/arm-none-eabi/8.3.1/../../../../arm-none-eabi/lib/thumb/v7e-m+dp/hard/libcr_c.a(fclose.o) (__sys_tmpnam)
/usr/local/mcuxpressoide-11.1.0_3209/ide/plugins/com.nxp.mcuxpresso.tools.linux_11.1.0.201909161352/tools/bin/../lib/gcc/arm-none-eabi/8.3.1/../../../../arm-none-eabi/lib/thumb/v7e-m+dp/hard/libcr_semihost_nf.a(__sys_write.o)
                              /usr/local/mcuxpressoide-11.1.0_3209/ide/plugins/com.nxp.mcuxpresso.tools.linux_11.1.0.201909161352/tools/bin/../lib/gcc/arm-none-eabi/8.3.1/../../../../arm-none-eabi/lib/thumb/v7e-m+dp/hard/libcr_c.a(alloc.o) (__sys_write)

Discarded input sections

 .group         0x0000000000000000        0xc ./xip/evkmimxrt1020_flexspi_nor_config.o
 .group         0x0000000000000000        0xc ./xip/evkmimxrt1020_flexspi_nor_config.o
 .group         0x0000000000000000        0xc ./xip/evkmimxrt1020_flexspi_nor_config.o
 .group         0x0000000000000000        0xc ./xip/evkmimxrt1020_flexspi_nor_config.o
 .group         0x0000000000000000        0xc ./xip/evkmimxrt1020_flexspi_nor_config.o
 .group         0x0000000000000000        0xc ./xip/evkmimxrt1020_flexspi_nor_config.o
 .group         0x0000000000000000        0xc ./xip/evkmimxrt1020_flexspi_nor_config.o
 .group         0x0000000000000000        0xc ./xip/evkmimxrt1020_flexspi_nor_config.o
 .group         0x0000000000000000        0xc ./xip/evkmimxrt1020_flexspi_nor_config.o
 .group         0x0000000000000000        0xc ./xip/evkmimxrt1020_flexspi_nor_config.o
 .group         0x0000000000000000        0xc ./xip/evkmimxrt1020_flexspi_nor_config.o
 .group         0x0000000000000000        0xc ./xip/evkmimxrt1020_flexspi_nor_config.o
 .group         0x0000000000000000        0xc ./xip/evkmimxrt1020_flexspi_nor_config.o
 .group         0x0000000000000000        0xc ./xip/evkmimxrt1020_flexspi_nor_config.o
 .group         0x0000000000000000        0xc ./xip/evkmimxrt1020_flexspi_nor_config.o
 .group         0x0000000000000000        0xc ./xip/evkmimxrt1020_flexspi_nor_config.o
 .group         0x0000000000000000        0xc ./xip/evkmimxrt1020_flexspi_nor_config.o
 .group         0x0000000000000000        0xc ./xip/evkmimxrt1020_flexspi_nor_config.o
 .group         0x0000000000000000        0xc ./xip/evkmimxrt1020_flexspi_nor_config.o
 .group         0x0000000000000000        0xc ./xip/evkmimxrt1020_flexspi_nor_config.o
 .group         0x0000000000000000        0xc ./xip/evkmimxrt1020_flexspi_nor_config.o
 .text          0x0000000000000000        0x0 ./xip/evkmimxrt1020_flexspi_nor_config.o
 .data          0x0000000000000000        0x0 ./xip/evkmimxrt1020_flexspi_nor_config.o
 .bss           0x0000000000000000        0x0 ./xip/evkmimxrt1020_flexspi_nor_config.o
 .group         0x0000000000000000        0xc ./xip/evkmimxrt1020_sdram_ini_dcd.o
 .group         0x0000000000000000        0xc ./xip/evkmimxrt1020_sdram_ini_dcd.o
 .group         0x0000000000000000        0xc ./xip/evkmimxrt1020_sdram_ini_dcd.o
 .group         0x0000000000000000        0xc ./xip/evkmimxrt1020_sdram_ini_dcd.o
 .group         0x0000000000000000        0xc ./xip/evkmimxrt1020_sdram_ini_dcd.o
 .text          0x0000000000000000        0x0 ./xip/evkmimxrt1020_sdram_ini_dcd.o
 .data          0x0000000000000000        0x0 ./xip/evkmimxrt1020_sdram_ini_dcd.o
 .bss           0x0000000000000000        0x0 ./xip/evkmimxrt1020_sdram_ini_dcd.o
 .rodata.dcd_data
                0x0000000000000000        0x1 ./xip/evkmimxrt1020_sdram_ini_dcd.o
 .debug_info    0x0000000000000000       0xd9 ./xip/evkmimxrt1020_sdram_ini_dcd.o
 .debug_abbrev  0x0000000000000000       0x9f ./xip/evkmimxrt1020_sdram_ini_dcd.o
 .debug_aranges
                0x0000000000000000       0x18 ./xip/evkmimxrt1020_sdram_ini_dcd.o
 .debug_macro   0x0000000000000000       0x51 ./xip/evkmimxrt1020_sdram_ini_dcd.o
 .debug_macro   0x0000000000000000      0xafc ./xip/evkmimxrt1020_sdram_ini_dcd.o
 .debug_macro   0x0000000000000000       0x10 ./xip/evkmimxrt1020_sdram_ini_dcd.o
 .debug_macro   0x0000000000000000      0x12e ./xip/evkmimxrt1020_sdram_ini_dcd.o
 .debug_macro   0x0000000000000000      0x5b3 ./xip/evkmimxrt1020_sdram_ini_dcd.o
 .debug_macro   0x0000000000000000       0x22 ./xip/evkmimxrt1020_sdram_ini_dcd.o
 .debug_line    0x0000000000000000      0x19e ./xip/evkmimxrt1020_sdram_ini_dcd.o
 .debug_str     0x0000000000000000     0x473b ./xip/evkmimxrt1020_sdram_ini_dcd.o
 .comment       0x0000000000000000       0x77 ./xip/evkmimxrt1020_sdram_ini_dcd.o
 .ARM.attributes
                0x0000000000000000       0x37 ./xip/evkmimxrt1020_sdram_ini_dcd.o
 .group         0x0000000000000000        0xc ./xip/fsl_flexspi_nor_boot.o
 .group         0x0000000000000000        0xc ./xip/fsl_flexspi_nor_boot.o
 .group         0x0000000000000000        0xc ./xip/fsl_flexspi_nor_boot.o
 .group         0x0000000000000000        0xc ./xip/fsl_flexspi_nor_boot.o
 .group         0x0000000000000000        0xc ./xip/fsl_flexspi_nor_boot.o
 .group         0x0000000000000000        0xc ./xip/fsl_flexspi_nor_boot.o
 .group         0x0000000000000000        0xc ./xip/fsl_flexspi_nor_boot.o
 .group         0x0000000000000000        0xc ./xip/fsl_flexspi_nor_boot.o
 .group         0x0000000000000000        0xc ./xip/fsl_flexspi_nor_boot.o
 .group         0x0000000000000000        0xc ./xip/fsl_flexspi_nor_boot.o
 .group         0x0000000000000000        0xc ./xip/fsl_flexspi_nor_boot.o
 .group         0x0000000000000000        0xc ./xip/fsl_flexspi_nor_boot.o
 .group         0x0000000000000000        0xc ./xip/fsl_flexspi_nor_boot.o
 .group         0x0000000000000000        0xc ./xip/fsl_flexspi_nor_boot.o
 .group         0x0000000000000000        0xc ./xip/fsl_flexspi_nor_boot.o
 .group         0x0000000000000000        0xc ./xip/fsl_flexspi_nor_boot.o
 .group         0x0000000000000000        0xc ./xip/fsl_flexspi_nor_boot.o
 .group         0x0000000000000000        0xc ./xip/fsl_flexspi_nor_boot.o
 .group         0x0000000000000000        0xc ./xip/fsl_flexspi_nor_boot.o
 .group         0x0000000000000000        0xc ./xip/fsl_flexspi_nor_boot.o
 .group         0x0000000000000000        0xc ./xip/fsl_flexspi_nor_boot.o
 .group         0x0000000000000000        0xc ./xip/fsl_flexspi_nor_boot.o
 .group         0x0000000000000000        0xc ./xip/fsl_flexspi_nor_boot.o
 .group         0x0000000000000000        0xc ./xip/fsl_flexspi_nor_boot.o
 .text          0x0000000000000000        0x0 ./xip/fsl_flexspi_nor_boot.o
 .data          0x0000000000000000        0x0 ./xip/fsl_flexspi_nor_boot.o
 .bss           0x0000000000000000        0x0 ./xip/fsl_flexspi_nor_boot.o
 .debug_macro   0x0000000000000000      0xafc ./xip/fsl_flexspi_nor_boot.o
 .debug_macro   0x0000000000000000       0x10 ./xip/fsl_flexspi_nor_boot.o
 .debug_macro   0x0000000000000000      0x12e ./xip/fsl_flexspi_nor_boot.o
 .debug_macro   0x0000000000000000      0x5b3 ./xip/fsl_flexspi_nor_boot.o
 .debug_macro   0x0000000000000000       0x16 ./xip/fsl_flexspi_nor_boot.o
 .debug_macro   0x0000000000000000       0x22 ./xip/fsl_flexspi_nor_boot.o
 .debug_macro   0x0000000000000000       0x22 ./xip/fsl_flexspi_nor_boot.o
 .debug_macro   0x0000000000000000       0x10 ./xip/fsl_flexspi_nor_boot.o
 .debug_macro   0x0000000000000000       0x4d ./xip/fsl_flexspi_nor_boot.o
 .debug_macro   0x0000000000000000       0x1c ./xip/fsl_flexspi_nor_boot.o
 .debug_macro   0x0000000000000000       0x22 ./xip/fsl_flexspi_nor_boot.o
 .debug_macro   0x0000000000000000       0xd8 ./xip/fsl_flexspi_nor_boot.o
 .debug_macro   0x0000000000000000     0x1305 ./xip/fsl_flexspi_nor_boot.o
 .debug_macro   0x0000000000000000      0x11f ./xip/fsl_flexspi_nor_boot.o
 .debug_macro   0x0000000000000000       0x20 ./xip/fsl_flexspi_nor_boot.o
 .debug_macro   0x0000000000000000       0x1c ./xip/fsl_flexspi_nor_boot.o
 .debug_macro   0x0000000000000000    0x1ffc2 ./xip/fsl_flexspi_nor_boot.o
 .debug_macro   0x0000000000000000      0x678 ./xip/fsl_flexspi_nor_boot.o
 .debug_macro   0x0000000000000000       0xd7 ./xip/fsl_flexspi_nor_boot.o
 .debug_macro   0x0000000000000000      0x1fb ./xip/fsl_flexspi_nor_boot.o
 .group         0x0000000000000000        0xc ./utilities/fsl_assert.o
 .group         0x0000000000000000        0xc ./utilities/fsl_assert.o
 .group         0x0000000000000000        0xc ./utilities/fsl_assert.o
 .group         0x0000000000000000        0xc ./utilities/fsl_assert.o
 .group         0x0000000000000000        0xc ./utilities/fsl_assert.o
 .group         0x0000000000000000        0xc ./utilities/fsl_assert.o
 .group         0x0000000000000000        0xc ./utilities/fsl_assert.o
 .group         0x0000000000000000        0xc ./utilities/fsl_assert.o
 .group         0x0000000000000000        0xc ./utilities/fsl_assert.o
 .group         0x0000000000000000        0xc ./utilities/fsl_assert.o
 .group         0x0000000000000000        0xc ./utilities/fsl_assert.o
 .group         0x0000000000000000        0xc ./utilities/fsl_assert.o
 .group         0x0000000000000000        0xc ./utilities/fsl_assert.o
 .group         0x0000000000000000        0xc ./utilities/fsl_assert.o
 .group         0x0000000000000000        0xc ./utilities/fsl_assert.o
 .group         0x0000000000000000        0xc ./utilities/fsl_assert.o
 .group         0x0000000000000000        0xc ./utilities/fsl_assert.o
 .group         0x0000000000000000        0xc ./utilities/fsl_assert.o
 .group         0x0000000000000000        0xc ./utilities/fsl_assert.o
 .group         0x0000000000000000        0xc ./utilities/fsl_assert.o
 .group         0x0000000000000000        0xc ./utilities/fsl_assert.o
 .group         0x0000000000000000        0xc ./utilities/fsl_assert.o
 .group         0x0000000000000000        0xc ./utilities/fsl_assert.o
 .group         0x0000000000000000        0xc ./utilities/fsl_assert.o
 .group         0x0000000000000000        0xc ./utilities/fsl_assert.o
 .group         0x0000000000000000        0xc ./utilities/fsl_assert.o
 .text          0x0000000000000000        0x0 ./utilities/fsl_assert.o
 .data          0x0000000000000000        0x0 ./utilities/fsl_assert.o
 .bss           0x0000000000000000        0x0 ./utilities/fsl_assert.o
 .debug_macro   0x0000000000000000      0xafc ./utilities/fsl_assert.o
 .debug_macro   0x0000000000000000       0x10 ./utilities/fsl_assert.o
 .debug_macro   0x0000000000000000       0x22 ./utilities/fsl_assert.o
 .debug_macro   0x0000000000000000      0x12e ./utilities/fsl_assert.o
 .debug_macro   0x0000000000000000      0x5b3 ./utilities/fsl_assert.o
 .debug_macro   0x0000000000000000       0x22 ./utilities/fsl_assert.o
 .debug_macro   0x0000000000000000       0x10 ./utilities/fsl_assert.o
 .debug_macro   0x0000000000000000       0x4d ./utilities/fsl_assert.o
 .debug_macro   0x0000000000000000       0x1c ./utilities/fsl_assert.o
 .debug_macro   0x0000000000000000       0x22 ./utilities/fsl_assert.o
 .debug_macro   0x0000000000000000       0xd8 ./utilities/fsl_assert.o
 .debug_macro   0x0000000000000000     0x1305 ./utilities/fsl_assert.o
 .debug_macro   0x0000000000000000      0x11f ./utilities/fsl_assert.o
 .debug_macro   0x0000000000000000       0x20 ./utilities/fsl_assert.o
 .debug_macro   0x0000000000000000       0x1c ./utilities/fsl_assert.o
 .debug_macro   0x0000000000000000    0x1ffc2 ./utilities/fsl_assert.o
 .debug_macro   0x0000000000000000      0x678 ./utilities/fsl_assert.o
 .debug_macro   0x0000000000000000       0xd7 ./utilities/fsl_assert.o
 .debug_macro   0x0000000000000000      0x1fb ./utilities/fsl_assert.o
 .group         0x0000000000000000        0xc ./utilities/fsl_debug_console.o
 .group         0x0000000000000000        0xc ./utilities/fsl_debug_console.o
 .group         0x0000000000000000        0xc ./utilities/fsl_debug_console.o
 .group         0x0000000000000000        0xc ./utilities/fsl_debug_console.o
 .group         0x0000000000000000        0xc ./utilities/fsl_debug_console.o
 .group         0x0000000000000000        0xc ./utilities/fsl_debug_console.o
 .group         0x0000000000000000        0xc ./utilities/fsl_debug_console.o
 .group         0x0000000000000000        0xc ./utilities/fsl_debug_console.o
 .group         0x0000000000000000        0xc ./utilities/fsl_debug_console.o
 .group         0x0000000000000000        0xc ./utilities/fsl_debug_console.o
 .group         0x0000000000000000        0xc ./utilities/fsl_debug_console.o
 .group         0x0000000000000000        0xc ./utilities/fsl_debug_console.o
 .group         0x0000000000000000        0xc ./utilities/fsl_debug_console.o
 .group         0x0000000000000000        0xc ./utilities/fsl_debug_console.o
 .group         0x0000000000000000        0xc ./utilities/fsl_debug_console.o
 .group         0x0000000000000000        0xc ./utilities/fsl_debug_console.o
 .group         0x0000000000000000        0xc ./utilities/fsl_debug_console.o
 .group         0x0000000000000000        0xc ./utilities/fsl_debug_console.o
 .group         0x0000000000000000        0xc ./utilities/fsl_debug_console.o
 .group         0x0000000000000000        0xc ./utilities/fsl_debug_console.o
 .group         0x0000000000000000        0xc ./utilities/fsl_debug_console.o
 .group         0x0000000000000000        0xc ./utilities/fsl_debug_console.o
 .group         0x0000000000000000        0xc ./utilities/fsl_debug_console.o
 .group         0x0000000000000000        0xc ./utilities/fsl_debug_console.o
 .group         0x0000000000000000        0xc ./utilities/fsl_debug_console.o
 .group         0x0000000000000000        0xc ./utilities/fsl_debug_console.o
 .group         0x0000000000000000        0xc ./utilities/fsl_debug_console.o
 .group         0x0000000000000000        0xc ./utilities/fsl_debug_console.o
 .group         0x0000000000000000        0xc ./utilities/fsl_debug_console.o
 .text          0x0000000000000000        0x0 ./utilities/fsl_debug_console.o
 .data          0x0000000000000000        0x0 ./utilities/fsl_debug_console.o
 .bss           0x0000000000000000        0x0 ./utilities/fsl_debug_console.o
 .bss.s_debugConsoleReadWaitSemaphore
                0x0000000000000000        0x1 ./utilities/fsl_debug_console.o
 .bss.s_debugConsoleState
                0x0000000000000000       0x1c ./utilities/fsl_debug_console.o
 .bss.g_serialHandle
                0x0000000000000000        0x4 ./utilities/fsl_debug_console.o
 .text.DbgConsole_ReadOneCharacter
                0x0000000000000000       0x34 ./utilities/fsl_debug_console.o
 .rodata.DbgConsole_SendData.str1.4
                0x0000000000000000       0x4d ./utilities/fsl_debug_console.o
 .text.DbgConsole_SendData
                0x0000000000000000       0x58 ./utilities/fsl_debug_console.o
 .rodata.DbgConsole_SendDataReliable.str1.4
                0x0000000000000000       0x4d ./utilities/fsl_debug_console.o
 .text.DbgConsole_SendDataReliable
                0x0000000000000000       0x68 ./utilities/fsl_debug_console.o
 .rodata.DbgConsole_ReadLine.str1.4
                0x0000000000000000       0x27 ./utilities/fsl_debug_console.o
 .text.DbgConsole_ReadLine
                0x0000000000000000       0xb0 ./utilities/fsl_debug_console.o
 .rodata.DbgConsole_ReadCharacter.str1.4
                0x0000000000000000       0x1e ./utilities/fsl_debug_console.o
 .text.DbgConsole_ReadCharacter
                0x0000000000000000       0x4c ./utilities/fsl_debug_console.o
 .debug_info    0x0000000000000000      0x742 ./utilities/fsl_debug_console.o
 .debug_abbrev  0x0000000000000000      0x191 ./utilities/fsl_debug_console.o
 .debug_aranges
                0x0000000000000000       0x40 ./utilities/fsl_debug_console.o
 .debug_ranges  0x0000000000000000       0x30 ./utilities/fsl_debug_console.o
 .debug_macro   0x0000000000000000      0x1b1 ./utilities/fsl_debug_console.o
 .debug_macro   0x0000000000000000      0xafc ./utilities/fsl_debug_console.o
 .debug_macro   0x0000000000000000       0x10 ./utilities/fsl_debug_console.o
 .debug_macro   0x0000000000000000       0x16 ./utilities/fsl_debug_console.o
 .debug_macro   0x0000000000000000       0x10 ./utilities/fsl_debug_console.o
 .debug_macro   0x0000000000000000      0x12e ./utilities/fsl_debug_console.o
 .debug_macro   0x0000000000000000       0x28 ./utilities/fsl_debug_console.o
 .debug_macro   0x0000000000000000       0x56 ./utilities/fsl_debug_console.o
 .debug_macro   0x0000000000000000       0x16 ./utilities/fsl_debug_console.o
 .debug_macro   0x0000000000000000       0x22 ./utilities/fsl_debug_console.o
 .debug_macro   0x0000000000000000      0x5b3 ./utilities/fsl_debug_console.o
 .debug_macro   0x0000000000000000       0x10 ./utilities/fsl_debug_console.o
 .debug_macro   0x0000000000000000       0x4d ./utilities/fsl_debug_console.o
 .debug_macro   0x0000000000000000       0x1c ./utilities/fsl_debug_console.o
 .debug_macro   0x0000000000000000       0x22 ./utilities/fsl_debug_console.o
 .debug_macro   0x0000000000000000       0xd8 ./utilities/fsl_debug_console.o
 .debug_macro   0x0000000000000000     0x1305 ./utilities/fsl_debug_console.o
 .debug_macro   0x0000000000000000      0x11f ./utilities/fsl_debug_console.o
 .debug_macro   0x0000000000000000       0x20 ./utilities/fsl_debug_console.o
 .debug_macro   0x0000000000000000       0x1c ./utilities/fsl_debug_console.o
 .debug_macro   0x0000000000000000    0x1ffc2 ./utilities/fsl_debug_console.o
 .debug_macro   0x0000000000000000      0x678 ./utilities/fsl_debug_console.o
 .debug_macro   0x0000000000000000       0xd7 ./utilities/fsl_debug_console.o
 .debug_macro   0x0000000000000000      0x1fb ./utilities/fsl_debug_console.o
 .debug_macro   0x0000000000000000       0x2e ./utilities/fsl_debug_console.o
 .debug_macro   0x0000000000000000       0x28 ./utilities/fsl_debug_console.o
 .debug_macro   0x0000000000000000       0x32 ./utilities/fsl_debug_console.o
 .debug_macro   0x0000000000000000       0x1c ./utilities/fsl_debug_console.o
 .debug_macro   0x0000000000000000       0xd2 ./utilities/fsl_debug_console.o
 .debug_macro   0x0000000000000000       0x1c ./utilities/fsl_debug_console.o
 .debug_line    0x0000000000000000      0x680 ./utilities/fsl_debug_console.o
 .debug_str     0x0000000000000000   0x117c35 ./utilities/fsl_debug_console.o
 .comment       0x0000000000000000       0x77 ./utilities/fsl_debug_console.o
 .debug_frame   0x0000000000000000       0xc4 ./utilities/fsl_debug_console.o
 .ARM.attributes
                0x0000000000000000       0x32 ./utilities/fsl_debug_console.o
 .group         0x0000000000000000        0xc ./utilities/fsl_str.o
 .group         0x0000000000000000        0xc ./utilities/fsl_str.o
 .group         0x0000000000000000        0xc ./utilities/fsl_str.o
 .group         0x0000000000000000        0xc ./utilities/fsl_str.o
 .group         0x0000000000000000        0xc ./utilities/fsl_str.o
 .group         0x0000000000000000        0xc ./utilities/fsl_str.o
 .group         0x0000000000000000        0xc ./utilities/fsl_str.o
 .group         0x0000000000000000        0xc ./utilities/fsl_str.o
 .group         0x0000000000000000        0xc ./utilities/fsl_str.o
 .group         0x0000000000000000        0xc ./utilities/fsl_str.o
 .group         0x0000000000000000        0xc ./utilities/fsl_str.o
 .group         0x0000000000000000        0xc ./utilities/fsl_str.o
 .group         0x0000000000000000        0xc ./utilities/fsl_str.o
 .group         0x0000000000000000        0xc ./utilities/fsl_str.o
 .group         0x0000000000000000        0xc ./utilities/fsl_str.o
 .group         0x0000000000000000        0xc ./utilities/fsl_str.o
 .group         0x0000000000000000        0xc ./utilities/fsl_str.o
 .group         0x0000000000000000        0xc ./utilities/fsl_str.o
 .group         0x0000000000000000        0xc ./utilities/fsl_str.o
 .group         0x0000000000000000        0xc ./utilities/fsl_str.o
 .group         0x0000000000000000        0xc ./utilities/fsl_str.o
 .group         0x0000000000000000        0xc ./utilities/fsl_str.o
 .group         0x0000000000000000        0xc ./utilities/fsl_str.o
 .text          0x0000000000000000        0x0 ./utilities/fsl_str.o
 .data          0x0000000000000000        0x0 ./utilities/fsl_str.o
 .bss           0x0000000000000000        0x0 ./utilities/fsl_str.o
 .text.ScanIgnoreWhiteSpace
                0x0000000000000000       0x60 ./utilities/fsl_str.o
 .text.ConvertRadixNumToString
                0x0000000000000000      0x114 ./utilities/fsl_str.o
 .text.StrFormatPrintf
                0x0000000000000000      0x30c ./utilities/fsl_str.o
 .text.StrFormatScanf
                0x0000000000000000      0x5e8 ./utilities/fsl_str.o
 .debug_info    0x0000000000000000      0x55e ./utilities/fsl_str.o
 .debug_abbrev  0x0000000000000000      0x1b3 ./utilities/fsl_str.o
 .debug_aranges
                0x0000000000000000       0x38 ./utilities/fsl_str.o
 .debug_ranges  0x0000000000000000       0x28 ./utilities/fsl_str.o
 .debug_macro   0x0000000000000000      0x122 ./utilities/fsl_str.o
 .debug_macro   0x0000000000000000      0xafc ./utilities/fsl_str.o
 .debug_macro   0x0000000000000000       0x10 ./utilities/fsl_str.o
 .debug_macro   0x0000000000000000       0xc4 ./utilities/fsl_str.o
 .debug_macro   0x0000000000000000       0x1c ./utilities/fsl_str.o
 .debug_macro   0x0000000000000000      0x12e ./utilities/fsl_str.o
 .debug_macro   0x0000000000000000       0x28 ./utilities/fsl_str.o
 .debug_macro   0x0000000000000000       0x16 ./utilities/fsl_str.o
 .debug_macro   0x0000000000000000       0x22 ./utilities/fsl_str.o
 .debug_macro   0x0000000000000000      0x5b3 ./utilities/fsl_str.o
 .debug_macro   0x0000000000000000       0x10 ./utilities/fsl_str.o
 .debug_macro   0x0000000000000000       0x4d ./utilities/fsl_str.o
 .debug_macro   0x0000000000000000       0x1c ./utilities/fsl_str.o
 .debug_macro   0x0000000000000000       0x22 ./utilities/fsl_str.o
 .debug_macro   0x0000000000000000       0xd8 ./utilities/fsl_str.o
 .debug_macro   0x0000000000000000     0x1305 ./utilities/fsl_str.o
 .debug_macro   0x0000000000000000      0x11f ./utilities/fsl_str.o
 .debug_macro   0x0000000000000000       0x20 ./utilities/fsl_str.o
 .debug_macro   0x0000000000000000       0x1c ./utilities/fsl_str.o
 .debug_macro   0x0000000000000000    0x1ffc2 ./utilities/fsl_str.o
 .debug_macro   0x0000000000000000      0x678 ./utilities/fsl_str.o
 .debug_macro   0x0000000000000000       0xd7 ./utilities/fsl_str.o
 .debug_macro   0x0000000000000000      0x1fb ./utilities/fsl_str.o
 .debug_macro   0x0000000000000000       0x56 ./utilities/fsl_str.o
 .debug_line    0x0000000000000000      0xa75 ./utilities/fsl_str.o
 .debug_str     0x0000000000000000   0x116ea3 ./utilities/fsl_str.o
 .comment       0x0000000000000000       0x77 ./utilities/fsl_str.o
 .debug_frame   0x0000000000000000       0xb4 ./utilities/fsl_str.o
 .ARM.attributes
                0x0000000000000000       0x32 ./utilities/fsl_str.o
 .group         0x0000000000000000        0xc ./startup/startup_mimxrt1021.o
 .text          0x0000000000000000        0x0 ./startup/startup_mimxrt1021.o
 .data          0x0000000000000000        0x0 ./startup/startup_mimxrt1021.o
 .bss           0x0000000000000000        0x0 ./startup/startup_mimxrt1021.o
 .text.XBAR1_IRQ_0_1_IRQHandler
                0x0000000000000000        0x8 ./startup/startup_mimxrt1021.o
 .text.TMR2_IRQHandler
                0x0000000000000000        0x8 ./startup/startup_mimxrt1021.o
 .debug_macro   0x0000000000000000      0xafc ./startup/startup_mimxrt1021.o
 .group         0x0000000000000000        0xc ./source/qtmr_inputcapture_outputpwm.o
 .group         0x0000000000000000        0xc ./source/qtmr_inputcapture_outputpwm.o
 .group         0x0000000000000000        0xc ./source/qtmr_inputcapture_outputpwm.o
 .group         0x0000000000000000        0xc ./source/qtmr_inputcapture_outputpwm.o
 .group         0x0000000000000000        0xc ./source/qtmr_inputcapture_outputpwm.o
 .group         0x0000000000000000        0xc ./source/qtmr_inputcapture_outputpwm.o
 .group         0x0000000000000000        0xc ./source/qtmr_inputcapture_outputpwm.o
 .group         0x0000000000000000        0xc ./source/qtmr_inputcapture_outputpwm.o
 .group         0x0000000000000000        0xc ./source/qtmr_inputcapture_outputpwm.o
 .group         0x0000000000000000        0xc ./source/qtmr_inputcapture_outputpwm.o
 .group         0x0000000000000000        0xc ./source/qtmr_inputcapture_outputpwm.o
 .group         0x0000000000000000        0xc ./source/qtmr_inputcapture_outputpwm.o
 .group         0x0000000000000000        0xc ./source/qtmr_inputcapture_outputpwm.o
 .group         0x0000000000000000        0xc ./source/qtmr_inputcapture_outputpwm.o
 .group         0x0000000000000000        0xc ./source/qtmr_inputcapture_outputpwm.o
 .group         0x0000000000000000        0xc ./source/qtmr_inputcapture_outputpwm.o
 .group         0x0000000000000000        0xc ./source/qtmr_inputcapture_outputpwm.o
 .group         0x0000000000000000        0xc ./source/qtmr_inputcapture_outputpwm.o
 .group         0x0000000000000000        0xc ./source/qtmr_inputcapture_outputpwm.o
 .group         0x0000000000000000        0xc ./source/qtmr_inputcapture_outputpwm.o
 .group         0x0000000000000000        0xc ./source/qtmr_inputcapture_outputpwm.o
 .group         0x0000000000000000        0xc ./source/qtmr_inputcapture_outputpwm.o
 .group         0x0000000000000000        0xc ./source/qtmr_inputcapture_outputpwm.o
 .group         0x0000000000000000        0xc ./source/qtmr_inputcapture_outputpwm.o
 .group         0x0000000000000000        0xc ./source/qtmr_inputcapture_outputpwm.o
 .group         0x0000000000000000        0xc ./source/qtmr_inputcapture_outputpwm.o
 .group         0x0000000000000000        0xc ./source/qtmr_inputcapture_outputpwm.o
 .group         0x0000000000000000        0xc ./source/qtmr_inputcapture_outputpwm.o
 .group         0x0000000000000000        0xc ./source/qtmr_inputcapture_outputpwm.o
 .group         0x0000000000000000        0xc ./source/qtmr_inputcapture_outputpwm.o
 .group         0x0000000000000000        0xc ./source/qtmr_inputcapture_outputpwm.o
 .group         0x0000000000000000        0xc ./source/qtmr_inputcapture_outputpwm.o
 .text          0x0000000000000000        0x0 ./source/qtmr_inputcapture_outputpwm.o
 .data          0x0000000000000000        0x0 ./source/qtmr_inputcapture_outputpwm.o
 .bss           0x0000000000000000        0x0 ./source/qtmr_inputcapture_outputpwm.o
 .debug_macro   0x0000000000000000      0xafc ./source/qtmr_inputcapture_outputpwm.o
 .debug_macro   0x0000000000000000       0x10 ./source/qtmr_inputcapture_outputpwm.o
 .debug_macro   0x0000000000000000       0x1c ./source/qtmr_inputcapture_outputpwm.o
 .debug_macro   0x0000000000000000       0x22 ./source/qtmr_inputcapture_outputpwm.o
 .debug_macro   0x0000000000000000      0x12e ./source/qtmr_inputcapture_outputpwm.o
 .debug_macro   0x0000000000000000      0x5b3 ./source/qtmr_inputcapture_outputpwm.o
 .debug_macro   0x0000000000000000       0x22 ./source/qtmr_inputcapture_outputpwm.o
 .debug_macro   0x0000000000000000       0x10 ./source/qtmr_inputcapture_outputpwm.o
 .debug_macro   0x0000000000000000       0x4d ./source/qtmr_inputcapture_outputpwm.o
 .debug_macro   0x0000000000000000       0x1c ./source/qtmr_inputcapture_outputpwm.o
 .debug_macro   0x0000000000000000       0x22 ./source/qtmr_inputcapture_outputpwm.o
 .debug_macro   0x0000000000000000       0xd8 ./source/qtmr_inputcapture_outputpwm.o
 .debug_macro   0x0000000000000000     0x1305 ./source/qtmr_inputcapture_outputpwm.o
 .debug_macro   0x0000000000000000      0x11f ./source/qtmr_inputcapture_outputpwm.o
 .debug_macro   0x0000000000000000       0x20 ./source/qtmr_inputcapture_outputpwm.o
 .debug_macro   0x0000000000000000       0x1c ./source/qtmr_inputcapture_outputpwm.o
 .debug_macro   0x0000000000000000    0x1ffc2 ./source/qtmr_inputcapture_outputpwm.o
 .debug_macro   0x0000000000000000      0x678 ./source/qtmr_inputcapture_outputpwm.o
 .debug_macro   0x0000000000000000       0xd7 ./source/qtmr_inputcapture_outputpwm.o
 .debug_macro   0x0000000000000000      0x1fb ./source/qtmr_inputcapture_outputpwm.o
 .debug_macro   0x0000000000000000       0x2e ./source/qtmr_inputcapture_outputpwm.o
 .debug_macro   0x0000000000000000       0x28 ./source/qtmr_inputcapture_outputpwm.o
 .debug_macro   0x0000000000000000       0x32 ./source/qtmr_inputcapture_outputpwm.o
 .debug_macro   0x0000000000000000       0x16 ./source/qtmr_inputcapture_outputpwm.o
 .debug_macro   0x0000000000000000       0xd2 ./source/qtmr_inputcapture_outputpwm.o
 .debug_macro   0x0000000000000000       0x1c ./source/qtmr_inputcapture_outputpwm.o
 .debug_macro   0x0000000000000000       0x10 ./source/qtmr_inputcapture_outputpwm.o
 .debug_macro   0x0000000000000000      0x23d ./source/qtmr_inputcapture_outputpwm.o
 .group         0x0000000000000000        0xc ./source/semihost_hardfault.o
 .text          0x0000000000000000        0x0 ./source/semihost_hardfault.o
 .data          0x0000000000000000        0x0 ./source/semihost_hardfault.o
 .bss           0x0000000000000000        0x0 ./source/semihost_hardfault.o
 .debug_macro   0x0000000000000000      0xafc ./source/semihost_hardfault.o
 .group         0x0000000000000000        0xc ./drivers/fsl_clock.o
 .group         0x0000000000000000        0xc ./drivers/fsl_clock.o
 .group         0x0000000000000000        0xc ./drivers/fsl_clock.o
 .group         0x0000000000000000        0xc ./drivers/fsl_clock.o
 .group         0x0000000000000000        0xc ./drivers/fsl_clock.o
 .group         0x0000000000000000        0xc ./drivers/fsl_clock.o
 .group         0x0000000000000000        0xc ./drivers/fsl_clock.o
 .group         0x0000000000000000        0xc ./drivers/fsl_clock.o
 .group         0x0000000000000000        0xc ./drivers/fsl_clock.o
 .group         0x0000000000000000        0xc ./drivers/fsl_clock.o
 .group         0x0000000000000000        0xc ./drivers/fsl_clock.o
 .group         0x0000000000000000        0xc ./drivers/fsl_clock.o
 .group         0x0000000000000000        0xc ./drivers/fsl_clock.o
 .group         0x0000000000000000        0xc ./drivers/fsl_clock.o
 .group         0x0000000000000000        0xc ./drivers/fsl_clock.o
 .group         0x0000000000000000        0xc ./drivers/fsl_clock.o
 .group         0x0000000000000000        0xc ./drivers/fsl_clock.o
 .group         0x0000000000000000        0xc ./drivers/fsl_clock.o
 .group         0x0000000000000000        0xc ./drivers/fsl_clock.o
 .group         0x0000000000000000        0xc ./drivers/fsl_clock.o
 .text          0x0000000000000000        0x0 ./drivers/fsl_clock.o
 .data          0x0000000000000000        0x0 ./drivers/fsl_clock.o
 .bss           0x0000000000000000        0x0 ./drivers/fsl_clock.o
 .text.CLOCK_DeinitExternalClk
                0x0000000000000000       0x1c ./drivers/fsl_clock.o
 .text.CLOCK_DeinitRcOsc24M
                0x0000000000000000       0x24 ./drivers/fsl_clock.o
 .text.CLOCK_EnableUsbhs0Clock
                0x0000000000000000       0x7c ./drivers/fsl_clock.o
 .text.CLOCK_EnableUsbhs0PhyPllClock
                0x0000000000000000       0x70 ./drivers/fsl_clock.o
 .text.CLOCK_DisableUsbhs0PhyPllClock
                0x0000000000000000       0x30 ./drivers/fsl_clock.o
 .text.CLOCK_DeinitSysPll
                0x0000000000000000       0x1c ./drivers/fsl_clock.o
 .text.CLOCK_InitUsb1Pll
                0x0000000000000000       0x68 ./drivers/fsl_clock.o
 .text.CLOCK_DeinitUsb1Pll
                0x0000000000000000       0x18 ./drivers/fsl_clock.o
 .text.CLOCK_InitAudioPll
                0x0000000000000000      0x12c ./drivers/fsl_clock.o
 .text.CLOCK_DeinitEnetPll
                0x0000000000000000       0x1c ./drivers/fsl_clock.o
 .text.CLOCK_DeinitSysPfd
                0x0000000000000000       0x34 ./drivers/fsl_clock.o
 .text.CLOCK_InitUsb1Pfd
                0x0000000000000000       0x64 ./drivers/fsl_clock.o
 .text.CLOCK_DeinitUsb1Pfd
                0x0000000000000000       0x34 ./drivers/fsl_clock.o
 .debug_macro   0x0000000000000000      0xafc ./drivers/fsl_clock.o
 .debug_macro   0x0000000000000000       0x10 ./drivers/fsl_clock.o
 .debug_macro   0x0000000000000000       0x1c ./drivers/fsl_clock.o
 .debug_macro   0x0000000000000000       0x22 ./drivers/fsl_clock.o
 .debug_macro   0x0000000000000000      0x12e ./drivers/fsl_clock.o
 .debug_macro   0x0000000000000000      0x5b3 ./drivers/fsl_clock.o
 .debug_macro   0x0000000000000000       0x22 ./drivers/fsl_clock.o
 .debug_macro   0x0000000000000000       0x10 ./drivers/fsl_clock.o
 .debug_macro   0x0000000000000000       0x4d ./drivers/fsl_clock.o
 .debug_macro   0x0000000000000000       0x1c ./drivers/fsl_clock.o
 .debug_macro   0x0000000000000000       0x22 ./drivers/fsl_clock.o
 .debug_macro   0x0000000000000000       0xd8 ./drivers/fsl_clock.o
 .debug_macro   0x0000000000000000     0x1305 ./drivers/fsl_clock.o
 .debug_macro   0x0000000000000000      0x11f ./drivers/fsl_clock.o
 .debug_macro   0x0000000000000000       0x20 ./drivers/fsl_clock.o
 .debug_macro   0x0000000000000000       0x1c ./drivers/fsl_clock.o
 .debug_macro   0x0000000000000000    0x1ffc2 ./drivers/fsl_clock.o
 .debug_macro   0x0000000000000000      0x678 ./drivers/fsl_clock.o
 .debug_macro   0x0000000000000000       0xd7 ./drivers/fsl_clock.o
 .debug_macro   0x0000000000000000      0x1fb ./drivers/fsl_clock.o
 .group         0x0000000000000000        0xc ./drivers/fsl_common.o
 .group         0x0000000000000000        0xc ./drivers/fsl_common.o
 .group         0x0000000000000000        0xc ./drivers/fsl_common.o
 .group         0x0000000000000000        0xc ./drivers/fsl_common.o
 .group         0x0000000000000000        0xc ./drivers/fsl_common.o
 .group         0x0000000000000000        0xc ./drivers/fsl_common.o
 .group         0x0000000000000000        0xc ./drivers/fsl_common.o
 .group         0x0000000000000000        0xc ./drivers/fsl_common.o
 .group         0x0000000000000000        0xc ./drivers/fsl_common.o
 .group         0x0000000000000000        0xc ./drivers/fsl_common.o
 .group         0x0000000000000000        0xc ./drivers/fsl_common.o
 .group         0x0000000000000000        0xc ./drivers/fsl_common.o
 .group         0x0000000000000000        0xc ./drivers/fsl_common.o
 .group         0x0000000000000000        0xc ./drivers/fsl_common.o
 .group         0x0000000000000000        0xc ./drivers/fsl_common.o
 .group         0x0000000000000000        0xc ./drivers/fsl_common.o
 .group         0x0000000000000000        0xc ./drivers/fsl_common.o
 .group         0x0000000000000000        0xc ./drivers/fsl_common.o
 .group         0x0000000000000000        0xc ./drivers/fsl_common.o
 .group         0x0000000000000000        0xc ./drivers/fsl_common.o
 .text          0x0000000000000000        0x0 ./drivers/fsl_common.o
 .data          0x0000000000000000        0x0 ./drivers/fsl_common.o
 .bss           0x0000000000000000        0x0 ./drivers/fsl_common.o
 .text.SDK_Malloc
                0x0000000000000000       0x70 ./drivers/fsl_common.o
 .text.SDK_Free
                0x0000000000000000       0x3a ./drivers/fsl_common.o
 .text.DelayLoop
                0x0000000000000000       0x20 ./drivers/fsl_common.o
 .rodata.SDK_DelayAtLeastUs.str1.4
                0x0000000000000000       0x4c ./drivers/fsl_common.o
 .text.SDK_DelayAtLeastUs
                0x0000000000000000       0x90 ./drivers/fsl_common.o
 .debug_info    0x0000000000000000      0x2c5 ./drivers/fsl_common.o
 .debug_abbrev  0x0000000000000000      0x153 ./drivers/fsl_common.o
 .debug_aranges
                0x0000000000000000       0x38 ./drivers/fsl_common.o
 .debug_ranges  0x0000000000000000       0x28 ./drivers/fsl_common.o
 .debug_macro   0x0000000000000000      0x109 ./drivers/fsl_common.o
 .debug_macro   0x0000000000000000      0xafc ./drivers/fsl_common.o
 .debug_macro   0x0000000000000000       0x10 ./drivers/fsl_common.o
 .debug_macro   0x0000000000000000       0x1c ./drivers/fsl_common.o
 .debug_macro   0x0000000000000000       0x22 ./drivers/fsl_common.o
 .debug_macro   0x0000000000000000      0x12e ./drivers/fsl_common.o
 .debug_macro   0x0000000000000000      0x5b3 ./drivers/fsl_common.o
 .debug_macro   0x0000000000000000       0x22 ./drivers/fsl_common.o
 .debug_macro   0x0000000000000000       0x10 ./drivers/fsl_common.o
 .debug_macro   0x0000000000000000       0x4d ./drivers/fsl_common.o
 .debug_macro   0x0000000000000000       0x1c ./drivers/fsl_common.o
 .debug_macro   0x0000000000000000       0x22 ./drivers/fsl_common.o
 .debug_macro   0x0000000000000000       0xd8 ./drivers/fsl_common.o
 .debug_macro   0x0000000000000000     0x1305 ./drivers/fsl_common.o
 .debug_macro   0x0000000000000000      0x11f ./drivers/fsl_common.o
 .debug_macro   0x0000000000000000       0x20 ./drivers/fsl_common.o
 .debug_macro   0x0000000000000000       0x1c ./drivers/fsl_common.o
 .debug_macro   0x0000000000000000    0x1ffc2 ./drivers/fsl_common.o
 .debug_macro   0x0000000000000000      0x678 ./drivers/fsl_common.o
 .debug_macro   0x0000000000000000       0xd7 ./drivers/fsl_common.o
 .debug_macro   0x0000000000000000      0x1fb ./drivers/fsl_common.o
 .debug_line    0x0000000000000000      0x419 ./drivers/fsl_common.o
 .debug_str     0x0000000000000000   0x1166b8 ./drivers/fsl_common.o
 .comment       0x0000000000000000       0x77 ./drivers/fsl_common.o
 .debug_frame   0x0000000000000000       0xa8 ./drivers/fsl_common.o
 .ARM.attributes
                0x0000000000000000       0x32 ./drivers/fsl_common.o
 .group         0x0000000000000000        0xc ./drivers/fsl_gpio.o
 .group         0x0000000000000000        0xc ./drivers/fsl_gpio.o
 .group         0x0000000000000000        0xc ./drivers/fsl_gpio.o
 .group         0x0000000000000000        0xc ./drivers/fsl_gpio.o
 .group         0x0000000000000000        0xc ./drivers/fsl_gpio.o
 .group         0x0000000000000000        0xc ./drivers/fsl_gpio.o
 .group         0x0000000000000000        0xc ./drivers/fsl_gpio.o
 .group         0x0000000000000000        0xc ./drivers/fsl_gpio.o
 .group         0x0000000000000000        0xc ./drivers/fsl_gpio.o
 .group         0x0000000000000000        0xc ./drivers/fsl_gpio.o
 .group         0x0000000000000000        0xc ./drivers/fsl_gpio.o
 .group         0x0000000000000000        0xc ./drivers/fsl_gpio.o
 .group         0x0000000000000000        0xc ./drivers/fsl_gpio.o
 .group         0x0000000000000000        0xc ./drivers/fsl_gpio.o
 .group         0x0000000000000000        0xc ./drivers/fsl_gpio.o
 .group         0x0000000000000000        0xc ./drivers/fsl_gpio.o
 .group         0x0000000000000000        0xc ./drivers/fsl_gpio.o
 .group         0x0000000000000000        0xc ./drivers/fsl_gpio.o
 .group         0x0000000000000000        0xc ./drivers/fsl_gpio.o
 .group         0x0000000000000000        0xc ./drivers/fsl_gpio.o
 .text          0x0000000000000000        0x0 ./drivers/fsl_gpio.o
 .data          0x0000000000000000        0x0 ./drivers/fsl_gpio.o
 .bss           0x0000000000000000        0x0 ./drivers/fsl_gpio.o
 .rodata.CLOCK_ControlGate.str1.4
                0x0000000000000000       0x20 ./drivers/fsl_gpio.o
 .text.CLOCK_ControlGate
                0x0000000000000000       0x64 ./drivers/fsl_gpio.o
 .text.CLOCK_EnableClock
                0x0000000000000000       0x1e ./drivers/fsl_gpio.o
 .text.GPIO_SetPinInterruptConfig
                0x0000000000000000       0x22 ./drivers/fsl_gpio.o
 .rodata.s_gpioBases
                0x0000000000000000       0x18 ./drivers/fsl_gpio.o
 .rodata.s_gpioClock
                0x0000000000000000        0xc ./drivers/fsl_gpio.o
 .rodata.GPIO_GetInstance.str1.4
                0x0000000000000000       0x34 ./drivers/fsl_gpio.o
 .text.GPIO_GetInstance
                0x0000000000000000       0x4c ./drivers/fsl_gpio.o
 .text.GPIO_PinInit
                0x0000000000000000       0xa4 ./drivers/fsl_gpio.o
 .rodata.GPIO_PinWrite.str1.4
                0x0000000000000000       0x1c ./drivers/fsl_gpio.o
 .text.GPIO_PinWrite
                0x0000000000000000       0x54 ./drivers/fsl_gpio.o
 .text.GPIO_PinSetInterruptConfig
                0x0000000000000000       0xfc ./drivers/fsl_gpio.o
 .debug_info    0x0000000000000000      0xc3d ./drivers/fsl_gpio.o
 .debug_abbrev  0x0000000000000000      0x255 ./drivers/fsl_gpio.o
 .debug_aranges
                0x0000000000000000       0x50 ./drivers/fsl_gpio.o
 .debug_ranges  0x0000000000000000       0x40 ./drivers/fsl_gpio.o
 .debug_macro   0x0000000000000000      0x113 ./drivers/fsl_gpio.o
 .debug_macro   0x0000000000000000      0xafc ./drivers/fsl_gpio.o
 .debug_macro   0x0000000000000000       0x10 ./drivers/fsl_gpio.o
 .debug_macro   0x0000000000000000       0x1c ./drivers/fsl_gpio.o
 .debug_macro   0x0000000000000000       0x22 ./drivers/fsl_gpio.o
 .debug_macro   0x0000000000000000      0x12e ./drivers/fsl_gpio.o
 .debug_macro   0x0000000000000000      0x5b3 ./drivers/fsl_gpio.o
 .debug_macro   0x0000000000000000       0x22 ./drivers/fsl_gpio.o
 .debug_macro   0x0000000000000000       0x10 ./drivers/fsl_gpio.o
 .debug_macro   0x0000000000000000       0x4d ./drivers/fsl_gpio.o
 .debug_macro   0x0000000000000000       0x1c ./drivers/fsl_gpio.o
 .debug_macro   0x0000000000000000       0x22 ./drivers/fsl_gpio.o
 .debug_macro   0x0000000000000000       0xd8 ./drivers/fsl_gpio.o
 .debug_macro   0x0000000000000000     0x1305 ./drivers/fsl_gpio.o
 .debug_macro   0x0000000000000000      0x11f ./drivers/fsl_gpio.o
 .debug_macro   0x0000000000000000       0x20 ./drivers/fsl_gpio.o
 .debug_macro   0x0000000000000000       0x1c ./drivers/fsl_gpio.o
 .debug_macro   0x0000000000000000    0x1ffc2 ./drivers/fsl_gpio.o
 .debug_macro   0x0000000000000000      0x678 ./drivers/fsl_gpio.o
 .debug_macro   0x0000000000000000       0xd7 ./drivers/fsl_gpio.o
 .debug_macro   0x0000000000000000      0x1fb ./drivers/fsl_gpio.o
 .debug_line    0x0000000000000000      0x532 ./drivers/fsl_gpio.o
 .debug_str     0x0000000000000000   0x11768e ./drivers/fsl_gpio.o
 .comment       0x0000000000000000       0x77 ./drivers/fsl_gpio.o
 .debug_frame   0x0000000000000000      0x110 ./drivers/fsl_gpio.o
 .ARM.attributes
                0x0000000000000000       0x32 ./drivers/fsl_gpio.o
 .group         0x0000000000000000        0xc ./drivers/fsl_lpspi.o
 .group         0x0000000000000000        0xc ./drivers/fsl_lpspi.o
 .group         0x0000000000000000        0xc ./drivers/fsl_lpspi.o
 .group         0x0000000000000000        0xc ./drivers/fsl_lpspi.o
 .group         0x0000000000000000        0xc ./drivers/fsl_lpspi.o
 .group         0x0000000000000000        0xc ./drivers/fsl_lpspi.o
 .group         0x0000000000000000        0xc ./drivers/fsl_lpspi.o
 .group         0x0000000000000000        0xc ./drivers/fsl_lpspi.o
 .group         0x0000000000000000        0xc ./drivers/fsl_lpspi.o
 .group         0x0000000000000000        0xc ./drivers/fsl_lpspi.o
 .group         0x0000000000000000        0xc ./drivers/fsl_lpspi.o
 .group         0x0000000000000000        0xc ./drivers/fsl_lpspi.o
 .group         0x0000000000000000        0xc ./drivers/fsl_lpspi.o
 .group         0x0000000000000000        0xc ./drivers/fsl_lpspi.o
 .group         0x0000000000000000        0xc ./drivers/fsl_lpspi.o
 .group         0x0000000000000000        0xc ./drivers/fsl_lpspi.o
 .group         0x0000000000000000        0xc ./drivers/fsl_lpspi.o
 .group         0x0000000000000000        0xc ./drivers/fsl_lpspi.o
 .group         0x0000000000000000        0xc ./drivers/fsl_lpspi.o
 .group         0x0000000000000000        0xc ./drivers/fsl_lpspi.o
 .group         0x0000000000000000        0xc ./drivers/fsl_lpspi.o
 .text          0x0000000000000000        0x0 ./drivers/fsl_lpspi.o
 .data          0x0000000000000000        0x0 ./drivers/fsl_lpspi.o
 .bss           0x0000000000000000        0x0 ./drivers/fsl_lpspi.o
 .text.__NVIC_EnableIRQ
                0x0000000000000000       0x3c ./drivers/fsl_lpspi.o
 .text.CLOCK_DisableClock
                0x0000000000000000       0x1e ./drivers/fsl_lpspi.o
 .text.EnableIRQ
                0x0000000000000000       0x2c ./drivers/fsl_lpspi.o
 .text.LPSPI_GetStatusFlags
                0x0000000000000000       0x18 ./drivers/fsl_lpspi.o
 .text.LPSPI_GetRxFifoSize
                0x0000000000000000       0x24 ./drivers/fsl_lpspi.o
 .text.LPSPI_GetTxFifoCount
                0x0000000000000000       0x1c ./drivers/fsl_lpspi.o
 .text.LPSPI_GetRxFifoCount
                0x0000000000000000       0x1e ./drivers/fsl_lpspi.o
 .text.LPSPI_ClearStatusFlags
                0x0000000000000000       0x1c ./drivers/fsl_lpspi.o
 .text.LPSPI_EnableInterrupts
                0x0000000000000000       0x22 ./drivers/fsl_lpspi.o
 .text.LPSPI_DisableInterrupts
                0x0000000000000000       0x24 ./drivers/fsl_lpspi.o
 .text.LPSPI_FlushFifo
                0x0000000000000000       0x30 ./drivers/fsl_lpspi.o
 .text.LPSPI_WriteData
                0x0000000000000000       0x1c ./drivers/fsl_lpspi.o
 .text.LPSPI_ReadData
                0x0000000000000000       0x18 ./drivers/fsl_lpspi.o
 .rodata.s_lpspiIRQ
                0x0000000000000000        0xa ./drivers/fsl_lpspi.o
 .rodata.LPSPI_MasterGetDefaultConfig.str1.4
                0x0000000000000000       0x20 ./drivers/fsl_lpspi.o
 .text.LPSPI_MasterGetDefaultConfig
                0x0000000000000000       0x98 ./drivers/fsl_lpspi.o
 .rodata.LPSPI_SlaveInit.str1.4
                0x0000000000000000       0x1f ./drivers/fsl_lpspi.o
 .text.LPSPI_SlaveInit
                0x0000000000000000       0xc0 ./drivers/fsl_lpspi.o
 .rodata.LPSPI_SlaveGetDefaultConfig.str1.4
                0x0000000000000000       0x1f ./drivers/fsl_lpspi.o
 .text.LPSPI_SlaveGetDefaultConfig
                0x0000000000000000       0x5c ./drivers/fsl_lpspi.o
 .text.LPSPI_Reset
                0x0000000000000000       0x32 ./drivers/fsl_lpspi.o
 .text.LPSPI_Deinit
                0x0000000000000000       0x30 ./drivers/fsl_lpspi.o
 .rodata.LPSPI_MasterTransferCreateHandle.str1.4
                0x0000000000000000       0x1a ./drivers/fsl_lpspi.o
 .text.LPSPI_MasterTransferCreateHandle
                0x0000000000000000       0x60 ./drivers/fsl_lpspi.o
 .rodata.LPSPI_CheckTransferArgument.str1.4
                0x0000000000000000       0x1c ./drivers/fsl_lpspi.o
 .text.LPSPI_CheckTransferArgument
                0x0000000000000000       0x98 ./drivers/fsl_lpspi.o
 .rodata.LPSPI_MasterTransferBlocking.str1.4
                0x0000000000000000       0x1c ./drivers/fsl_lpspi.o
 .text.LPSPI_MasterTransferBlocking
                0x0000000000000000      0x300 ./drivers/fsl_lpspi.o
 .rodata.LPSPI_MasterTransferNonBlocking.str1.4
                0x0000000000000000       0x38 ./drivers/fsl_lpspi.o
 .text.LPSPI_MasterTransferNonBlocking
                0x0000000000000000      0x2e8 ./drivers/fsl_lpspi.o
 .rodata.LPSPI_MasterTransferFillUpTxFifo.str1.4
                0x0000000000000000       0x1b ./drivers/fsl_lpspi.o
 .text.LPSPI_MasterTransferFillUpTxFifo
                0x0000000000000000      0x11c ./drivers/fsl_lpspi.o
 .rodata.LPSPI_MasterTransferComplete.str1.4
                0x0000000000000000       0x1b ./drivers/fsl_lpspi.o
 .text.LPSPI_MasterTransferComplete
                0x0000000000000000       0x4c ./drivers/fsl_lpspi.o
 .rodata.LPSPI_MasterTransferGetCount.str1.4
                0x0000000000000000       0x1b ./drivers/fsl_lpspi.o
 .text.LPSPI_MasterTransferGetCount
                0x0000000000000000       0x68 ./drivers/fsl_lpspi.o
 .rodata.LPSPI_MasterTransferAbort.str1.4
                0x0000000000000000       0x1b ./drivers/fsl_lpspi.o
 .text.LPSPI_MasterTransferAbort
                0x0000000000000000       0x48 ./drivers/fsl_lpspi.o
 .rodata.LPSPI_MasterTransferHandleIRQ.str1.4
                0x0000000000000000       0x1b ./drivers/fsl_lpspi.o
 .text.LPSPI_MasterTransferHandleIRQ
                0x0000000000000000      0x1a4 ./drivers/fsl_lpspi.o
 .rodata.LPSPI_SlaveTransferCreateHandle.str1.4
                0x0000000000000000       0x1b ./drivers/fsl_lpspi.o
 .text.LPSPI_SlaveTransferCreateHandle
                0x0000000000000000       0x60 ./drivers/fsl_lpspi.o
 .rodata.LPSPI_SlaveTransferNonBlocking.str1.4
                0x0000000000000000       0x39 ./drivers/fsl_lpspi.o
 .text.LPSPI_SlaveTransferNonBlocking
                0x0000000000000000      0x2d8 ./drivers/fsl_lpspi.o
 .rodata.LPSPI_SlaveTransferFillUpTxFifo.str1.4
                0x0000000000000000       0x1b ./drivers/fsl_lpspi.o
 .text.LPSPI_SlaveTransferFillUpTxFifo
                0x0000000000000000       0x9c ./drivers/fsl_lpspi.o
 .rodata.LPSPI_SlaveTransferComplete.str1.4
                0x0000000000000000       0x1b ./drivers/fsl_lpspi.o
 .text.LPSPI_SlaveTransferComplete
                0x0000000000000000       0x68 ./drivers/fsl_lpspi.o
 .rodata.LPSPI_SlaveTransferGetCount.str1.4
                0x0000000000000000       0x23 ./drivers/fsl_lpspi.o
 .text.LPSPI_SlaveTransferGetCount
                0x0000000000000000       0x68 ./drivers/fsl_lpspi.o
 .rodata.LPSPI_SlaveTransferAbort.str1.4
                0x0000000000000000       0x1b ./drivers/fsl_lpspi.o
 .text.LPSPI_SlaveTransferAbort
                0x0000000000000000       0x44 ./drivers/fsl_lpspi.o
 .rodata.LPSPI_SlaveTransferHandleIRQ.str1.4
                0x0000000000000000       0x1b ./drivers/fsl_lpspi.o
 .text.LPSPI_SlaveTransferHandleIRQ
                0x0000000000000000      0x248 ./drivers/fsl_lpspi.o
 .rodata.LPSPI_CombineWriteData.str1.4
                0x0000000000000000       0x3e ./drivers/fsl_lpspi.o
 .text.LPSPI_CombineWriteData
                0x0000000000000000      0x1bc ./drivers/fsl_lpspi.o
 .rodata.LPSPI_SeparateReadData.str1.4
                0x0000000000000000       0x36 ./drivers/fsl_lpspi.o
 .text.LPSPI_SeparateReadData
                0x0000000000000000      0x1b0 ./drivers/fsl_lpspi.o
 .debug_macro   0x0000000000000000      0xafc ./drivers/fsl_lpspi.o
 .debug_macro   0x0000000000000000       0x10 ./drivers/fsl_lpspi.o
 .debug_macro   0x0000000000000000       0x1c ./drivers/fsl_lpspi.o
 .debug_macro   0x0000000000000000       0x22 ./drivers/fsl_lpspi.o
 .debug_macro   0x0000000000000000      0x12e ./drivers/fsl_lpspi.o
 .debug_macro   0x0000000000000000      0x5b3 ./drivers/fsl_lpspi.o
 .debug_macro   0x0000000000000000       0x22 ./drivers/fsl_lpspi.o
 .debug_macro   0x0000000000000000       0x10 ./drivers/fsl_lpspi.o
 .debug_macro   0x0000000000000000       0x4d ./drivers/fsl_lpspi.o
 .debug_macro   0x0000000000000000       0x1c ./drivers/fsl_lpspi.o
 .debug_macro   0x0000000000000000       0x22 ./drivers/fsl_lpspi.o
 .debug_macro   0x0000000000000000       0xd8 ./drivers/fsl_lpspi.o
 .debug_macro   0x0000000000000000     0x1305 ./drivers/fsl_lpspi.o
 .debug_macro   0x0000000000000000      0x11f ./drivers/fsl_lpspi.o
 .debug_macro   0x0000000000000000       0x20 ./drivers/fsl_lpspi.o
 .debug_macro   0x0000000000000000       0x1c ./drivers/fsl_lpspi.o
 .debug_macro   0x0000000000000000    0x1ffc2 ./drivers/fsl_lpspi.o
 .debug_macro   0x0000000000000000      0x678 ./drivers/fsl_lpspi.o
 .debug_macro   0x0000000000000000       0xd7 ./drivers/fsl_lpspi.o
 .debug_macro   0x0000000000000000      0x1fb ./drivers/fsl_lpspi.o
 .group         0x0000000000000000        0xc ./drivers/fsl_lpuart.o
 .group         0x0000000000000000        0xc ./drivers/fsl_lpuart.o
 .group         0x0000000000000000        0xc ./drivers/fsl_lpuart.o
 .group         0x0000000000000000        0xc ./drivers/fsl_lpuart.o
 .group         0x0000000000000000        0xc ./drivers/fsl_lpuart.o
 .group         0x0000000000000000        0xc ./drivers/fsl_lpuart.o
 .group         0x0000000000000000        0xc ./drivers/fsl_lpuart.o
 .group         0x0000000000000000        0xc ./drivers/fsl_lpuart.o
 .group         0x0000000000000000        0xc ./drivers/fsl_lpuart.o
 .group         0x0000000000000000        0xc ./drivers/fsl_lpuart.o
 .group         0x0000000000000000        0xc ./drivers/fsl_lpuart.o
 .group         0x0000000000000000        0xc ./drivers/fsl_lpuart.o
 .group         0x0000000000000000        0xc ./drivers/fsl_lpuart.o
 .group         0x0000000000000000        0xc ./drivers/fsl_lpuart.o
 .group         0x0000000000000000        0xc ./drivers/fsl_lpuart.o
 .group         0x0000000000000000        0xc ./drivers/fsl_lpuart.o
 .group         0x0000000000000000        0xc ./drivers/fsl_lpuart.o
 .group         0x0000000000000000        0xc ./drivers/fsl_lpuart.o
 .group         0x0000000000000000        0xc ./drivers/fsl_lpuart.o
 .group         0x0000000000000000        0xc ./drivers/fsl_lpuart.o
 .text          0x0000000000000000        0x0 ./drivers/fsl_lpuart.o
 .data          0x0000000000000000        0x0 ./drivers/fsl_lpuart.o
 .bss           0x0000000000000000        0x0 ./drivers/fsl_lpuart.o
 .text.__NVIC_EnableIRQ
                0x0000000000000000       0x3c ./drivers/fsl_lpuart.o
 .rodata.CLOCK_ControlGate.str1.4
                0x0000000000000000       0x20 ./drivers/fsl_lpuart.o
 .text.CLOCK_ControlGate
                0x0000000000000000       0x64 ./drivers/fsl_lpuart.o
 .text.CLOCK_EnableClock
                0x0000000000000000       0x1e ./drivers/fsl_lpuart.o
 .text.CLOCK_DisableClock
                0x0000000000000000       0x1e ./drivers/fsl_lpuart.o
 .text.EnableIRQ
                0x0000000000000000       0x2c ./drivers/fsl_lpuart.o
 .text.LPUART_SoftwareReset
                0x0000000000000000       0x2c ./drivers/fsl_lpuart.o
 .rodata.s_lpuartBases
                0x0000000000000000       0x24 ./drivers/fsl_lpuart.o
 .rodata.s_lpuartIRQ
                0x0000000000000000       0x12 ./drivers/fsl_lpuart.o
 .rodata.s_lpuartClock
                0x0000000000000000       0x12 ./drivers/fsl_lpuart.o
 .rodata.LPUART_GetInstance.str1.4
                0x0000000000000000       0x39 ./drivers/fsl_lpuart.o
 .text.LPUART_GetInstance
                0x0000000000000000       0x4c ./drivers/fsl_lpuart.o
 .rodata.LPUART_TransferGetRxRingBufferLength.str1.4
                0x0000000000000000       0x23 ./drivers/fsl_lpuart.o
 .text.LPUART_TransferGetRxRingBufferLength
                0x0000000000000000       0x54 ./drivers/fsl_lpuart.o
 .rodata.LPUART_TransferIsRxRingBufferFull.str1.4
                0x0000000000000000       0x23 ./drivers/fsl_lpuart.o
 .text.LPUART_TransferIsRxRingBufferFull
                0x0000000000000000       0x44 ./drivers/fsl_lpuart.o
 .rodata.LPUART_WriteNonBlocking.str1.4
                0x0000000000000000       0x21 ./drivers/fsl_lpuart.o
 .text.LPUART_WriteNonBlocking
                0x0000000000000000       0x48 ./drivers/fsl_lpuart.o
 .rodata.LPUART_ReadNonBlocking.str1.4
                0x0000000000000000       0x21 ./drivers/fsl_lpuart.o
 .text.LPUART_ReadNonBlocking
                0x0000000000000000       0x98 ./drivers/fsl_lpuart.o
 .rodata.LPUART_Init.str1.4
                0x0000000000000000      0x10c ./drivers/fsl_lpuart.o
 .text.LPUART_Init
                0x0000000000000000      0x310 ./drivers/fsl_lpuart.o
 .text.LPUART_Deinit
                0x0000000000000000       0x70 ./drivers/fsl_lpuart.o
 .rodata.LPUART_GetDefaultConfig.str1.4
                0x0000000000000000       0x23 ./drivers/fsl_lpuart.o
 .text.LPUART_GetDefaultConfig
                0x0000000000000000       0x88 ./drivers/fsl_lpuart.o
 .rodata.LPUART_SetBaudRate.str1.4
                0x0000000000000000       0x26 ./drivers/fsl_lpuart.o
 .text.LPUART_SetBaudRate
                0x0000000000000000      0x154 ./drivers/fsl_lpuart.o
 .text.LPUART_EnableInterrupts
                0x0000000000000000       0x52 ./drivers/fsl_lpuart.o
 .text.LPUART_DisableInterrupts
                0x0000000000000000       0x58 ./drivers/fsl_lpuart.o
 .text.LPUART_GetEnabledInterrupts
                0x0000000000000000       0x44 ./drivers/fsl_lpuart.o
 .text.LPUART_GetStatusFlags
                0x0000000000000000       0x2c ./drivers/fsl_lpuart.o
 .text.LPUART_ClearStatusFlags
                0x0000000000000000       0xa4 ./drivers/fsl_lpuart.o
 .rodata.LPUART_WriteBlocking.str1.4
                0x0000000000000000       0x21 ./drivers/fsl_lpuart.o
 .text.LPUART_WriteBlocking
                0x0000000000000000       0x68 ./drivers/fsl_lpuart.o
 .rodata.LPUART_ReadBlocking.str1.4
                0x0000000000000000       0x21 ./drivers/fsl_lpuart.o
 .text.LPUART_ReadBlocking
                0x0000000000000000      0x160 ./drivers/fsl_lpuart.o
 .rodata.LPUART_TransferCreateHandle.str1.4
                0x0000000000000000       0x23 ./drivers/fsl_lpuart.o
 .text.LPUART_TransferCreateHandle
                0x0000000000000000       0xc0 ./drivers/fsl_lpuart.o
 .rodata.LPUART_TransferStartRingBuffer.str1.4
                0x0000000000000000       0x4c ./drivers/fsl_lpuart.o
 .text.LPUART_TransferStartRingBuffer
                0x0000000000000000       0x58 ./drivers/fsl_lpuart.o
 .rodata.LPUART_TransferStopRingBuffer.str1.4
                0x0000000000000000       0x24 ./drivers/fsl_lpuart.o
 .text.LPUART_TransferStopRingBuffer
                0x0000000000000000       0x50 ./drivers/fsl_lpuart.o
 .rodata.LPUART_TransferSendNonBlocking.str1.4
                0x0000000000000000       0x9a ./drivers/fsl_lpuart.o
 .text.LPUART_TransferSendNonBlocking
                0x0000000000000000       0x9c ./drivers/fsl_lpuart.o
 .rodata.LPUART_TransferAbortSend.str1.4
                0x0000000000000000       0x24 ./drivers/fsl_lpuart.o
 .text.LPUART_TransferAbortSend
                0x0000000000000000       0x3c ./drivers/fsl_lpuart.o
 .rodata.LPUART_TransferGetSendCount.str1.4
                0x0000000000000000       0x47 ./drivers/fsl_lpuart.o
 .text.LPUART_TransferGetSendCount
                0x0000000000000000       0x60 ./drivers/fsl_lpuart.o
 .rodata.LPUART_TransferReceiveNonBlocking.str1.4
                0x0000000000000000       0x9a ./drivers/fsl_lpuart.o
 .text.LPUART_TransferReceiveNonBlocking
                0x0000000000000000      0x198 ./drivers/fsl_lpuart.o
 .rodata.LPUART_TransferAbortReceive.str1.4
                0x0000000000000000       0x24 ./drivers/fsl_lpuart.o
 .text.LPUART_TransferAbortReceive
                0x0000000000000000       0x44 ./drivers/fsl_lpuart.o
 .rodata.LPUART_TransferGetReceiveCount.str1.4
                0x0000000000000000       0x47 ./drivers/fsl_lpuart.o
 .text.LPUART_TransferGetReceiveCount
                0x0000000000000000       0x60 ./drivers/fsl_lpuart.o
 .rodata.LPUART_TransferHandleIRQ.str1.4
                0x0000000000000000       0x24 ./drivers/fsl_lpuart.o
 .text.LPUART_TransferHandleIRQ
                0x0000000000000000      0x3c4 ./drivers/fsl_lpuart.o
 .text.LPUART_TransferHandleErrorIRQ
                0x0000000000000000       0x16 ./drivers/fsl_lpuart.o
 .debug_macro   0x0000000000000000      0xafc ./drivers/fsl_lpuart.o
 .debug_macro   0x0000000000000000       0x10 ./drivers/fsl_lpuart.o
 .debug_macro   0x0000000000000000       0x1c ./drivers/fsl_lpuart.o
 .debug_macro   0x0000000000000000       0x22 ./drivers/fsl_lpuart.o
 .debug_macro   0x0000000000000000      0x12e ./drivers/fsl_lpuart.o
 .debug_macro   0x0000000000000000      0x5b3 ./drivers/fsl_lpuart.o
 .debug_macro   0x0000000000000000       0x22 ./drivers/fsl_lpuart.o
 .debug_macro   0x0000000000000000       0x10 ./drivers/fsl_lpuart.o
 .debug_macro   0x0000000000000000       0x4d ./drivers/fsl_lpuart.o
 .debug_macro   0x0000000000000000       0x1c ./drivers/fsl_lpuart.o
 .debug_macro   0x0000000000000000       0x22 ./drivers/fsl_lpuart.o
 .debug_macro   0x0000000000000000       0xd8 ./drivers/fsl_lpuart.o
 .debug_macro   0x0000000000000000     0x1305 ./drivers/fsl_lpuart.o
 .debug_macro   0x0000000000000000      0x11f ./drivers/fsl_lpuart.o
 .debug_macro   0x0000000000000000       0x20 ./drivers/fsl_lpuart.o
 .debug_macro   0x0000000000000000       0x1c ./drivers/fsl_lpuart.o
 .debug_macro   0x0000000000000000    0x1ffc2 ./drivers/fsl_lpuart.o
 .debug_macro   0x0000000000000000      0x678 ./drivers/fsl_lpuart.o
 .debug_macro   0x0000000000000000       0xd7 ./drivers/fsl_lpuart.o
 .debug_macro   0x0000000000000000      0x1fb ./drivers/fsl_lpuart.o
 .group         0x0000000000000000        0xc ./drivers/fsl_qtmr.o
 .group         0x0000000000000000        0xc ./drivers/fsl_qtmr.o
 .group         0x0000000000000000        0xc ./drivers/fsl_qtmr.o
 .group         0x0000000000000000        0xc ./drivers/fsl_qtmr.o
 .group         0x0000000000000000        0xc ./drivers/fsl_qtmr.o
 .group         0x0000000000000000        0xc ./drivers/fsl_qtmr.o
 .group         0x0000000000000000        0xc ./drivers/fsl_qtmr.o
 .group         0x0000000000000000        0xc ./drivers/fsl_qtmr.o
 .group         0x0000000000000000        0xc ./drivers/fsl_qtmr.o
 .group         0x0000000000000000        0xc ./drivers/fsl_qtmr.o
 .group         0x0000000000000000        0xc ./drivers/fsl_qtmr.o
 .group         0x0000000000000000        0xc ./drivers/fsl_qtmr.o
 .group         0x0000000000000000        0xc ./drivers/fsl_qtmr.o
 .group         0x0000000000000000        0xc ./drivers/fsl_qtmr.o
 .group         0x0000000000000000        0xc ./drivers/fsl_qtmr.o
 .group         0x0000000000000000        0xc ./drivers/fsl_qtmr.o
 .group         0x0000000000000000        0xc ./drivers/fsl_qtmr.o
 .group         0x0000000000000000        0xc ./drivers/fsl_qtmr.o
 .group         0x0000000000000000        0xc ./drivers/fsl_qtmr.o
 .group         0x0000000000000000        0xc ./drivers/fsl_qtmr.o
 .text          0x0000000000000000        0x0 ./drivers/fsl_qtmr.o
 .data          0x0000000000000000        0x0 ./drivers/fsl_qtmr.o
 .bss           0x0000000000000000        0x0 ./drivers/fsl_qtmr.o
 .text.CLOCK_DisableClock
                0x0000000000000000       0x1e ./drivers/fsl_qtmr.o
 .text.QTMR_Deinit
                0x0000000000000000       0x50 ./drivers/fsl_qtmr.o
 .text.QTMR_EnableInterrupts
                0x0000000000000000       0xce ./drivers/fsl_qtmr.o
 .text.QTMR_DisableInterrupts
                0x0000000000000000       0xac ./drivers/fsl_qtmr.o
 .text.QTMR_GetEnabledInterrupts
                0x0000000000000000       0x94 ./drivers/fsl_qtmr.o
 .text.QTMR_GetStatus
                0x0000000000000000       0x92 ./drivers/fsl_qtmr.o
 .text.QTMR_SetTimerPeriod
                0x0000000000000000       0x70 ./drivers/fsl_qtmr.o
 .text.QTMR_EnableDma
                0x0000000000000000       0x8e ./drivers/fsl_qtmr.o
 .text.QTMR_DisableDma
                0x0000000000000000       0x6c ./drivers/fsl_qtmr.o
 .debug_macro   0x0000000000000000      0xafc ./drivers/fsl_qtmr.o
 .debug_macro   0x0000000000000000       0x10 ./drivers/fsl_qtmr.o
 .debug_macro   0x0000000000000000       0x1c ./drivers/fsl_qtmr.o
 .debug_macro   0x0000000000000000       0x22 ./drivers/fsl_qtmr.o
 .debug_macro   0x0000000000000000      0x12e ./drivers/fsl_qtmr.o
 .debug_macro   0x0000000000000000      0x5b3 ./drivers/fsl_qtmr.o
 .debug_macro   0x0000000000000000       0x22 ./drivers/fsl_qtmr.o
 .debug_macro   0x0000000000000000       0x10 ./drivers/fsl_qtmr.o
 .debug_macro   0x0000000000000000       0x4d ./drivers/fsl_qtmr.o
 .debug_macro   0x0000000000000000       0x1c ./drivers/fsl_qtmr.o
 .debug_macro   0x0000000000000000       0x22 ./drivers/fsl_qtmr.o
 .debug_macro   0x0000000000000000       0xd8 ./drivers/fsl_qtmr.o
 .debug_macro   0x0000000000000000     0x1305 ./drivers/fsl_qtmr.o
 .debug_macro   0x0000000000000000      0x11f ./drivers/fsl_qtmr.o
 .debug_macro   0x0000000000000000       0x20 ./drivers/fsl_qtmr.o
 .debug_macro   0x0000000000000000       0x1c ./drivers/fsl_qtmr.o
 .debug_macro   0x0000000000000000    0x1ffc2 ./drivers/fsl_qtmr.o
 .debug_macro   0x0000000000000000      0x678 ./drivers/fsl_qtmr.o
 .debug_macro   0x0000000000000000       0xd7 ./drivers/fsl_qtmr.o
 .debug_macro   0x0000000000000000      0x1fb ./drivers/fsl_qtmr.o
 .group         0x0000000000000000        0xc ./drivers/fsl_xbara.o
 .group         0x0000000000000000        0xc ./drivers/fsl_xbara.o
 .group         0x0000000000000000        0xc ./drivers/fsl_xbara.o
 .group         0x0000000000000000        0xc ./drivers/fsl_xbara.o
 .group         0x0000000000000000        0xc ./drivers/fsl_xbara.o
 .group         0x0000000000000000        0xc ./drivers/fsl_xbara.o
 .group         0x0000000000000000        0xc ./drivers/fsl_xbara.o
 .group         0x0000000000000000        0xc ./drivers/fsl_xbara.o
 .group         0x0000000000000000        0xc ./drivers/fsl_xbara.o
 .group         0x0000000000000000        0xc ./drivers/fsl_xbara.o
 .group         0x0000000000000000        0xc ./drivers/fsl_xbara.o
 .group         0x0000000000000000        0xc ./drivers/fsl_xbara.o
 .group         0x0000000000000000        0xc ./drivers/fsl_xbara.o
 .group         0x0000000000000000        0xc ./drivers/fsl_xbara.o
 .group         0x0000000000000000        0xc ./drivers/fsl_xbara.o
 .group         0x0000000000000000        0xc ./drivers/fsl_xbara.o
 .group         0x0000000000000000        0xc ./drivers/fsl_xbara.o
 .group         0x0000000000000000        0xc ./drivers/fsl_xbara.o
 .group         0x0000000000000000        0xc ./drivers/fsl_xbara.o
 .group         0x0000000000000000        0xc ./drivers/fsl_xbara.o
 .group         0x0000000000000000        0xc ./drivers/fsl_xbara.o
 .text          0x0000000000000000        0x0 ./drivers/fsl_xbara.o
 .data          0x0000000000000000        0x0 ./drivers/fsl_xbara.o
 .bss           0x0000000000000000        0x0 ./drivers/fsl_xbara.o
 .text.CLOCK_DisableClock
                0x0000000000000000       0x1e ./drivers/fsl_xbara.o
 .rodata.s_xbaraBases
                0x0000000000000000        0x4 ./drivers/fsl_xbara.o
 .rodata.s_xbaraClock
                0x0000000000000000        0x2 ./drivers/fsl_xbara.o
 .text.XBARA_Deinit
                0x0000000000000000       0x20 ./drivers/fsl_xbara.o
 .debug_macro   0x0000000000000000      0xafc ./drivers/fsl_xbara.o
 .debug_macro   0x0000000000000000       0x10 ./drivers/fsl_xbara.o
 .debug_macro   0x0000000000000000       0x1c ./drivers/fsl_xbara.o
 .debug_macro   0x0000000000000000       0x22 ./drivers/fsl_xbara.o
 .debug_macro   0x0000000000000000      0x12e ./drivers/fsl_xbara.o
 .debug_macro   0x0000000000000000      0x5b3 ./drivers/fsl_xbara.o
 .debug_macro   0x0000000000000000       0x22 ./drivers/fsl_xbara.o
 .debug_macro   0x0000000000000000       0x10 ./drivers/fsl_xbara.o
 .debug_macro   0x0000000000000000       0x4d ./drivers/fsl_xbara.o
 .debug_macro   0x0000000000000000       0x1c ./drivers/fsl_xbara.o
 .debug_macro   0x0000000000000000       0x22 ./drivers/fsl_xbara.o
 .debug_macro   0x0000000000000000       0xd8 ./drivers/fsl_xbara.o
 .debug_macro   0x0000000000000000     0x1305 ./drivers/fsl_xbara.o
 .debug_macro   0x0000000000000000      0x11f ./drivers/fsl_xbara.o
 .debug_macro   0x0000000000000000       0x20 ./drivers/fsl_xbara.o
 .debug_macro   0x0000000000000000       0x1c ./drivers/fsl_xbara.o
 .debug_macro   0x0000000000000000    0x1ffc2 ./drivers/fsl_xbara.o
 .debug_macro   0x0000000000000000      0x678 ./drivers/fsl_xbara.o
 .debug_macro   0x0000000000000000       0xd7 ./drivers/fsl_xbara.o
 .debug_macro   0x0000000000000000      0x1fb ./drivers/fsl_xbara.o
 .group         0x0000000000000000        0xc ./device/system_MIMXRT1021.o
 .group         0x0000000000000000        0xc ./device/system_MIMXRT1021.o
 .group         0x0000000000000000        0xc ./device/system_MIMXRT1021.o
 .group         0x0000000000000000        0xc ./device/system_MIMXRT1021.o
 .group         0x0000000000000000        0xc ./device/system_MIMXRT1021.o
 .group         0x0000000000000000        0xc ./device/system_MIMXRT1021.o
 .group         0x0000000000000000        0xc ./device/system_MIMXRT1021.o
 .group         0x0000000000000000        0xc ./device/system_MIMXRT1021.o
 .group         0x0000000000000000        0xc ./device/system_MIMXRT1021.o
 .group         0x0000000000000000        0xc ./device/system_MIMXRT1021.o
 .group         0x0000000000000000        0xc ./device/system_MIMXRT1021.o
 .group         0x0000000000000000        0xc ./device/system_MIMXRT1021.o
 .group         0x0000000000000000        0xc ./device/system_MIMXRT1021.o
 .group         0x0000000000000000        0xc ./device/system_MIMXRT1021.o
 .group         0x0000000000000000        0xc ./device/system_MIMXRT1021.o
 .text          0x0000000000000000        0x0 ./device/system_MIMXRT1021.o
 .data          0x0000000000000000        0x0 ./device/system_MIMXRT1021.o
 .bss           0x0000000000000000        0x0 ./device/system_MIMXRT1021.o
 .text.SystemCoreClockUpdate
                0x0000000000000000      0x1a0 ./device/system_MIMXRT1021.o
 .debug_macro   0x0000000000000000      0xafc ./device/system_MIMXRT1021.o
 .debug_macro   0x0000000000000000       0x10 ./device/system_MIMXRT1021.o
 .debug_macro   0x0000000000000000      0x12e ./device/system_MIMXRT1021.o
 .debug_macro   0x0000000000000000      0x5b3 ./device/system_MIMXRT1021.o
 .debug_macro   0x0000000000000000       0x10 ./device/system_MIMXRT1021.o
 .debug_macro   0x0000000000000000       0x4d ./device/system_MIMXRT1021.o
 .debug_macro   0x0000000000000000       0x1c ./device/system_MIMXRT1021.o
 .debug_macro   0x0000000000000000       0x22 ./device/system_MIMXRT1021.o
 .debug_macro   0x0000000000000000       0xd8 ./device/system_MIMXRT1021.o
 .debug_macro   0x0000000000000000     0x1305 ./device/system_MIMXRT1021.o
 .debug_macro   0x0000000000000000      0x11f ./device/system_MIMXRT1021.o
 .debug_macro   0x0000000000000000       0x20 ./device/system_MIMXRT1021.o
 .debug_macro   0x0000000000000000       0x1c ./device/system_MIMXRT1021.o
 .debug_macro   0x0000000000000000    0x1ffc2 ./device/system_MIMXRT1021.o
 .debug_macro   0x0000000000000000      0x678 ./device/system_MIMXRT1021.o
 .group         0x0000000000000000        0xc ./component/uart/lpuart_adapter.o
 .group         0x0000000000000000        0xc ./component/uart/lpuart_adapter.o
 .group         0x0000000000000000        0xc ./component/uart/lpuart_adapter.o
 .group         0x0000000000000000        0xc ./component/uart/lpuart_adapter.o
 .group         0x0000000000000000        0xc ./component/uart/lpuart_adapter.o
 .group         0x0000000000000000        0xc ./component/uart/lpuart_adapter.o
 .group         0x0000000000000000        0xc ./component/uart/lpuart_adapter.o
 .group         0x0000000000000000        0xc ./component/uart/lpuart_adapter.o
 .group         0x0000000000000000        0xc ./component/uart/lpuart_adapter.o
 .group         0x0000000000000000        0xc ./component/uart/lpuart_adapter.o
 .group         0x0000000000000000        0xc ./component/uart/lpuart_adapter.o
 .group         0x0000000000000000        0xc ./component/uart/lpuart_adapter.o
 .group         0x0000000000000000        0xc ./component/uart/lpuart_adapter.o
 .group         0x0000000000000000        0xc ./component/uart/lpuart_adapter.o
 .group         0x0000000000000000        0xc ./component/uart/lpuart_adapter.o
 .group         0x0000000000000000        0xc ./component/uart/lpuart_adapter.o
 .group         0x0000000000000000        0xc ./component/uart/lpuart_adapter.o
 .group         0x0000000000000000        0xc ./component/uart/lpuart_adapter.o
 .group         0x0000000000000000        0xc ./component/uart/lpuart_adapter.o
 .group         0x0000000000000000        0xc ./component/uart/lpuart_adapter.o
 .group         0x0000000000000000        0xc ./component/uart/lpuart_adapter.o
 .group         0x0000000000000000        0xc ./component/uart/lpuart_adapter.o
 .text          0x0000000000000000        0x0 ./component/uart/lpuart_adapter.o
 .data          0x0000000000000000        0x0 ./component/uart/lpuart_adapter.o
 .bss           0x0000000000000000        0x0 ./component/uart/lpuart_adapter.o
 .rodata.s_LpuartAdapterBase
                0x0000000000000000       0x24 ./component/uart/lpuart_adapter.o
 .text.HAL_UartGetStatus
                0x0000000000000000       0x22 ./component/uart/lpuart_adapter.o
 .rodata.HAL_UartInit.str1.4
                0x0000000000000000       0xe2 ./component/uart/lpuart_adapter.o
 .text.HAL_UartInit
                0x0000000000000000      0x100 ./component/uart/lpuart_adapter.o
 .rodata.HAL_UartDeinit.str1.4
                0x0000000000000000       0x1f ./component/uart/lpuart_adapter.o
 .text.HAL_UartDeinit
                0x0000000000000000       0x3c ./component/uart/lpuart_adapter.o
 .rodata.HAL_UartReceiveBlocking.str1.4
                0x0000000000000000       0x5f ./component/uart/lpuart_adapter.o
 .text.HAL_UartReceiveBlocking
                0x0000000000000000       0x6c ./component/uart/lpuart_adapter.o
 .rodata.HAL_UartSendBlocking.str1.4
                0x0000000000000000       0x5f ./component/uart/lpuart_adapter.o
 .text.HAL_UartSendBlocking
                0x0000000000000000       0x64 ./component/uart/lpuart_adapter.o
 .rodata.HAL_UartEnterLowpower.str1.4
                0x0000000000000000       0x1f ./component/uart/lpuart_adapter.o
 .text.HAL_UartEnterLowpower
                0x0000000000000000       0x24 ./component/uart/lpuart_adapter.o
 .text.HAL_UartExitLowpower
                0x0000000000000000       0x16 ./component/uart/lpuart_adapter.o
 .debug_info    0x0000000000000000      0xa44 ./component/uart/lpuart_adapter.o
 .debug_abbrev  0x0000000000000000      0x1e1 ./component/uart/lpuart_adapter.o
 .debug_aranges
                0x0000000000000000       0x50 ./component/uart/lpuart_adapter.o
 .debug_ranges  0x0000000000000000       0x40 ./component/uart/lpuart_adapter.o
 .debug_macro   0x0000000000000000      0x10f ./component/uart/lpuart_adapter.o
 .debug_macro   0x0000000000000000      0xafc ./component/uart/lpuart_adapter.o
 .debug_macro   0x0000000000000000       0x10 ./component/uart/lpuart_adapter.o
 .debug_macro   0x0000000000000000       0x1c ./component/uart/lpuart_adapter.o
 .debug_macro   0x0000000000000000       0x22 ./component/uart/lpuart_adapter.o
 .debug_macro   0x0000000000000000      0x12e ./component/uart/lpuart_adapter.o
 .debug_macro   0x0000000000000000      0x5b3 ./component/uart/lpuart_adapter.o
 .debug_macro   0x0000000000000000       0x22 ./component/uart/lpuart_adapter.o
 .debug_macro   0x0000000000000000       0x10 ./component/uart/lpuart_adapter.o
 .debug_macro   0x0000000000000000       0x4d ./component/uart/lpuart_adapter.o
 .debug_macro   0x0000000000000000       0x1c ./component/uart/lpuart_adapter.o
 .debug_macro   0x0000000000000000       0x22 ./component/uart/lpuart_adapter.o
 .debug_macro   0x0000000000000000       0xd8 ./component/uart/lpuart_adapter.o
 .debug_macro   0x0000000000000000     0x1305 ./component/uart/lpuart_adapter.o
 .debug_macro   0x0000000000000000      0x11f ./component/uart/lpuart_adapter.o
 .debug_macro   0x0000000000000000       0x20 ./component/uart/lpuart_adapter.o
 .debug_macro   0x0000000000000000       0x1c ./component/uart/lpuart_adapter.o
 .debug_macro   0x0000000000000000    0x1ffc2 ./component/uart/lpuart_adapter.o
 .debug_macro   0x0000000000000000      0x678 ./component/uart/lpuart_adapter.o
 .debug_macro   0x0000000000000000       0xd7 ./component/uart/lpuart_adapter.o
 .debug_macro   0x0000000000000000      0x1fb ./component/uart/lpuart_adapter.o
 .debug_macro   0x0000000000000000       0x10 ./component/uart/lpuart_adapter.o
 .debug_macro   0x0000000000000000       0x28 ./component/uart/lpuart_adapter.o
 .debug_line    0x0000000000000000      0x54e ./component/uart/lpuart_adapter.o
 .debug_str     0x0000000000000000   0x117639 ./component/uart/lpuart_adapter.o
 .comment       0x0000000000000000       0x77 ./component/uart/lpuart_adapter.o
 .debug_frame   0x0000000000000000      0x114 ./component/uart/lpuart_adapter.o
 .ARM.attributes
                0x0000000000000000       0x32 ./component/uart/lpuart_adapter.o
 .group         0x0000000000000000        0xc ./component/serial_manager/serial_manager.o
 .group         0x0000000000000000        0xc ./component/serial_manager/serial_manager.o
 .group         0x0000000000000000        0xc ./component/serial_manager/serial_manager.o
 .group         0x0000000000000000        0xc ./component/serial_manager/serial_manager.o
 .group         0x0000000000000000        0xc ./component/serial_manager/serial_manager.o
 .group         0x0000000000000000        0xc ./component/serial_manager/serial_manager.o
 .group         0x0000000000000000        0xc ./component/serial_manager/serial_manager.o
 .group         0x0000000000000000        0xc ./component/serial_manager/serial_manager.o
 .group         0x0000000000000000        0xc ./component/serial_manager/serial_manager.o
 .group         0x0000000000000000        0xc ./component/serial_manager/serial_manager.o
 .group         0x0000000000000000        0xc ./component/serial_manager/serial_manager.o
 .group         0x0000000000000000        0xc ./component/serial_manager/serial_manager.o
 .group         0x0000000000000000        0xc ./component/serial_manager/serial_manager.o
 .group         0x0000000000000000        0xc ./component/serial_manager/serial_manager.o
 .group         0x0000000000000000        0xc ./component/serial_manager/serial_manager.o
 .group         0x0000000000000000        0xc ./component/serial_manager/serial_manager.o
 .group         0x0000000000000000        0xc ./component/serial_manager/serial_manager.o
 .group         0x0000000000000000        0xc ./component/serial_manager/serial_manager.o
 .group         0x0000000000000000        0xc ./component/serial_manager/serial_manager.o
 .group         0x0000000000000000        0xc ./component/serial_manager/serial_manager.o
 .group         0x0000000000000000        0xc ./component/serial_manager/serial_manager.o
 .group         0x0000000000000000        0xc ./component/serial_manager/serial_manager.o
 .group         0x0000000000000000        0xc ./component/serial_manager/serial_manager.o
 .text          0x0000000000000000        0x0 ./component/serial_manager/serial_manager.o
 .data          0x0000000000000000        0x0 ./component/serial_manager/serial_manager.o
 .bss           0x0000000000000000        0x0 ./component/serial_manager/serial_manager.o
 .text.DisableGlobalIRQ
                0x0000000000000000       0x20 ./component/serial_manager/serial_manager.o
 .text.EnableGlobalIRQ
                0x0000000000000000       0x1e ./component/serial_manager/serial_manager.o
 .text.SerialManager_StartWriting
                0x0000000000000000       0x4a ./component/serial_manager/serial_manager.o
 .text.SerialManager_StartReading
                0x0000000000000000       0x4a ./component/serial_manager/serial_manager.o
 .rodata.SerialManager_Write.str1.4
                0x0000000000000000       0x83 ./component/serial_manager/serial_manager.o
 .text.SerialManager_Write
                0x0000000000000000       0x6c ./component/serial_manager/serial_manager.o
 .rodata.SerialManager_Read.str1.4
                0x0000000000000000       0x83 ./component/serial_manager/serial_manager.o
 .text.SerialManager_Read
                0x0000000000000000       0x6c ./component/serial_manager/serial_manager.o
 .rodata.SerialManager_Init.str1.4
                0x0000000000000000       0x45 ./component/serial_manager/serial_manager.o
 .text.SerialManager_Init
                0x0000000000000000       0x74 ./component/serial_manager/serial_manager.o
 .rodata.SerialManager_Deinit.str1.4
                0x0000000000000000       0x25 ./component/serial_manager/serial_manager.o
 .text.SerialManager_Deinit
                0x0000000000000000       0x64 ./component/serial_manager/serial_manager.o
 .rodata.SerialManager_OpenWriteHandle.str1.4
                0x0000000000000000       0x4d ./component/serial_manager/serial_manager.o
 .text.SerialManager_OpenWriteHandle
                0x0000000000000000       0x64 ./component/serial_manager/serial_manager.o
 .rodata.SerialManager_CloseWriteHandle.str1.4
                0x0000000000000000       0x48 ./component/serial_manager/serial_manager.o
 .text.SerialManager_CloseWriteHandle
                0x0000000000000000       0x64 ./component/serial_manager/serial_manager.o
 .rodata.SerialManager_OpenReadHandle.str1.4
                0x0000000000000000       0x4c ./component/serial_manager/serial_manager.o
 .text.SerialManager_OpenReadHandle
                0x0000000000000000       0x74 ./component/serial_manager/serial_manager.o
 .rodata.SerialManager_CloseReadHandle.str1.4
                0x0000000000000000       0x7a ./component/serial_manager/serial_manager.o
 .text.SerialManager_CloseReadHandle
                0x0000000000000000       0x64 ./component/serial_manager/serial_manager.o
 .text.SerialManager_WriteBlocking
                0x0000000000000000       0x20 ./component/serial_manager/serial_manager.o
 .text.SerialManager_ReadBlocking
                0x0000000000000000       0x20 ./component/serial_manager/serial_manager.o
 .rodata.SerialManager_EnterLowpower.str1.4
                0x0000000000000000       0x26 ./component/serial_manager/serial_manager.o
 .text.SerialManager_EnterLowpower
                0x0000000000000000       0x48 ./component/serial_manager/serial_manager.o
 .rodata.SerialManager_ExitLowpower.str1.4
                0x0000000000000000       0x26 ./component/serial_manager/serial_manager.o
 .text.SerialManager_ExitLowpower
                0x0000000000000000       0x48 ./component/serial_manager/serial_manager.o
 .debug_info    0x0000000000000000      0x8f1 ./component/serial_manager/serial_manager.o
 .debug_abbrev  0x0000000000000000      0x240 ./component/serial_manager/serial_manager.o
 .debug_aranges
                0x0000000000000000       0x98 ./component/serial_manager/serial_manager.o
 .debug_ranges  0x0000000000000000       0x88 ./component/serial_manager/serial_manager.o
 .debug_macro   0x0000000000000000      0x146 ./component/serial_manager/serial_manager.o
 .debug_macro   0x0000000000000000      0xafc ./component/serial_manager/serial_manager.o
 .debug_macro   0x0000000000000000       0x10 ./component/serial_manager/serial_manager.o
 .debug_macro   0x0000000000000000       0x1c ./component/serial_manager/serial_manager.o
 .debug_macro   0x0000000000000000       0x22 ./component/serial_manager/serial_manager.o
 .debug_macro   0x0000000000000000      0x12e ./component/serial_manager/serial_manager.o
 .debug_macro   0x0000000000000000      0x5b3 ./component/serial_manager/serial_manager.o
 .debug_macro   0x0000000000000000       0x22 ./component/serial_manager/serial_manager.o
 .debug_macro   0x0000000000000000       0x10 ./component/serial_manager/serial_manager.o
 .debug_macro   0x0000000000000000       0x4d ./component/serial_manager/serial_manager.o
 .debug_macro   0x0000000000000000       0x1c ./component/serial_manager/serial_manager.o
 .debug_macro   0x0000000000000000       0x22 ./component/serial_manager/serial_manager.o
 .debug_macro   0x0000000000000000       0xd8 ./component/serial_manager/serial_manager.o
 .debug_macro   0x0000000000000000     0x1305 ./component/serial_manager/serial_manager.o
 .debug_macro   0x0000000000000000      0x11f ./component/serial_manager/serial_manager.o
 .debug_macro   0x0000000000000000       0x20 ./component/serial_manager/serial_manager.o
 .debug_macro   0x0000000000000000       0x1c ./component/serial_manager/serial_manager.o
 .debug_macro   0x0000000000000000    0x1ffc2 ./component/serial_manager/serial_manager.o
 .debug_macro   0x0000000000000000      0x678 ./component/serial_manager/serial_manager.o
 .debug_macro   0x0000000000000000       0xd7 ./component/serial_manager/serial_manager.o
 .debug_macro   0x0000000000000000      0x1fb ./component/serial_manager/serial_manager.o
 .debug_macro   0x0000000000000000       0x2e ./component/serial_manager/serial_manager.o
 .debug_macro   0x0000000000000000       0x28 ./component/serial_manager/serial_manager.o
 .debug_macro   0x0000000000000000       0x32 ./component/serial_manager/serial_manager.o
 .debug_line    0x0000000000000000      0x82f ./component/serial_manager/serial_manager.o
 .debug_str     0x0000000000000000   0x116ecc ./component/serial_manager/serial_manager.o
 .comment       0x0000000000000000       0x77 ./component/serial_manager/serial_manager.o
 .debug_frame   0x0000000000000000      0x258 ./component/serial_manager/serial_manager.o
 .ARM.attributes
                0x0000000000000000       0x32 ./component/serial_manager/serial_manager.o
 .group         0x0000000000000000        0xc ./component/serial_manager/serial_port_uart.o
 .group         0x0000000000000000        0xc ./component/serial_manager/serial_port_uart.o
 .group         0x0000000000000000        0xc ./component/serial_manager/serial_port_uart.o
 .group         0x0000000000000000        0xc ./component/serial_manager/serial_port_uart.o
 .group         0x0000000000000000        0xc ./component/serial_manager/serial_port_uart.o
 .group         0x0000000000000000        0xc ./component/serial_manager/serial_port_uart.o
 .group         0x0000000000000000        0xc ./component/serial_manager/serial_port_uart.o
 .group         0x0000000000000000        0xc ./component/serial_manager/serial_port_uart.o
 .group         0x0000000000000000        0xc ./component/serial_manager/serial_port_uart.o
 .group         0x0000000000000000        0xc ./component/serial_manager/serial_port_uart.o
 .group         0x0000000000000000        0xc ./component/serial_manager/serial_port_uart.o
 .group         0x0000000000000000        0xc ./component/serial_manager/serial_port_uart.o
 .group         0x0000000000000000        0xc ./component/serial_manager/serial_port_uart.o
 .group         0x0000000000000000        0xc ./component/serial_manager/serial_port_uart.o
 .group         0x0000000000000000        0xc ./component/serial_manager/serial_port_uart.o
 .group         0x0000000000000000        0xc ./component/serial_manager/serial_port_uart.o
 .group         0x0000000000000000        0xc ./component/serial_manager/serial_port_uart.o
 .group         0x0000000000000000        0xc ./component/serial_manager/serial_port_uart.o
 .group         0x0000000000000000        0xc ./component/serial_manager/serial_port_uart.o
 .group         0x0000000000000000        0xc ./component/serial_manager/serial_port_uart.o
 .group         0x0000000000000000        0xc ./component/serial_manager/serial_port_uart.o
 .group         0x0000000000000000        0xc ./component/serial_manager/serial_port_uart.o
 .group         0x0000000000000000        0xc ./component/serial_manager/serial_port_uart.o
 .text          0x0000000000000000        0x0 ./component/serial_manager/serial_port_uart.o
 .data          0x0000000000000000        0x0 ./component/serial_manager/serial_port_uart.o
 .bss           0x0000000000000000        0x0 ./component/serial_manager/serial_port_uart.o
 .rodata.Serial_UartInit.str1.4
                0x0000000000000000       0x4f ./component/serial_manager/serial_port_uart.o
 .text.Serial_UartInit
                0x0000000000000000       0x80 ./component/serial_manager/serial_port_uart.o
 .rodata.Serial_UartDeinit.str1.4
                0x0000000000000000       0x27 ./component/serial_manager/serial_port_uart.o
 .text.Serial_UartDeinit
                0x0000000000000000       0x30 ./component/serial_manager/serial_port_uart.o
 .rodata.Serial_UartWrite.str1.4
                0x0000000000000000       0x6d ./component/serial_manager/serial_port_uart.o
 .text.Serial_UartWrite
                0x0000000000000000       0x58 ./component/serial_manager/serial_port_uart.o
 .rodata.Serial_UartRead.str1.4
                0x0000000000000000       0x6d ./component/serial_manager/serial_port_uart.o
 .text.Serial_UartRead
                0x0000000000000000       0x58 ./component/serial_manager/serial_port_uart.o
 .rodata.Serial_UartEnterLowpower.str1.4
                0x0000000000000000       0x27 ./component/serial_manager/serial_port_uart.o
 .text.Serial_UartEnterLowpower
                0x0000000000000000       0x3c ./component/serial_manager/serial_port_uart.o
 .rodata.Serial_UartExitLowpower.str1.4
                0x0000000000000000       0x27 ./component/serial_manager/serial_port_uart.o
 .text.Serial_UartExitLowpower
                0x0000000000000000       0x3c ./component/serial_manager/serial_port_uart.o
 .debug_info    0x0000000000000000      0x57b ./component/serial_manager/serial_port_uart.o
 .debug_abbrev  0x0000000000000000      0x160 ./component/serial_manager/serial_port_uart.o
 .debug_aranges
                0x0000000000000000       0x48 ./component/serial_manager/serial_port_uart.o
 .debug_ranges  0x0000000000000000       0x38 ./component/serial_manager/serial_port_uart.o
 .debug_macro   0x0000000000000000      0x12e ./component/serial_manager/serial_port_uart.o
 .debug_macro   0x0000000000000000      0xafc ./component/serial_manager/serial_port_uart.o
 .debug_macro   0x0000000000000000       0x10 ./component/serial_manager/serial_port_uart.o
 .debug_macro   0x0000000000000000       0x1c ./component/serial_manager/serial_port_uart.o
 .debug_macro   0x0000000000000000       0x22 ./component/serial_manager/serial_port_uart.o
 .debug_macro   0x0000000000000000      0x12e ./component/serial_manager/serial_port_uart.o
 .debug_macro   0x0000000000000000      0x5b3 ./component/serial_manager/serial_port_uart.o
 .debug_macro   0x0000000000000000       0x22 ./component/serial_manager/serial_port_uart.o
 .debug_macro   0x0000000000000000       0x10 ./component/serial_manager/serial_port_uart.o
 .debug_macro   0x0000000000000000       0x4d ./component/serial_manager/serial_port_uart.o
 .debug_macro   0x0000000000000000       0x1c ./component/serial_manager/serial_port_uart.o
 .debug_macro   0x0000000000000000       0x22 ./component/serial_manager/serial_port_uart.o
 .debug_macro   0x0000000000000000       0xd8 ./component/serial_manager/serial_port_uart.o
 .debug_macro   0x0000000000000000     0x1305 ./component/serial_manager/serial_port_uart.o
 .debug_macro   0x0000000000000000      0x11f ./component/serial_manager/serial_port_uart.o
 .debug_macro   0x0000000000000000       0x20 ./component/serial_manager/serial_port_uart.o
 .debug_macro   0x0000000000000000       0x1c ./component/serial_manager/serial_port_uart.o
 .debug_macro   0x0000000000000000    0x1ffc2 ./component/serial_manager/serial_port_uart.o
 .debug_macro   0x0000000000000000      0x678 ./component/serial_manager/serial_port_uart.o
 .debug_macro   0x0000000000000000       0xd7 ./component/serial_manager/serial_port_uart.o
 .debug_macro   0x0000000000000000      0x1fb ./component/serial_manager/serial_port_uart.o
 .debug_macro   0x0000000000000000       0x2e ./component/serial_manager/serial_port_uart.o
 .debug_macro   0x0000000000000000       0x28 ./component/serial_manager/serial_port_uart.o
 .debug_macro   0x0000000000000000       0x32 ./component/serial_manager/serial_port_uart.o
 .debug_line    0x0000000000000000      0x5dd ./component/serial_manager/serial_port_uart.o
 .debug_str     0x0000000000000000   0x116e95 ./component/serial_manager/serial_port_uart.o
 .comment       0x0000000000000000       0x77 ./component/serial_manager/serial_port_uart.o
 .debug_frame   0x0000000000000000       0xe8 ./component/serial_manager/serial_port_uart.o
 .ARM.attributes
                0x0000000000000000       0x32 ./component/serial_manager/serial_port_uart.o
 .group         0x0000000000000000        0xc ./component/lists/generic_list.o
 .group         0x0000000000000000        0xc ./component/lists/generic_list.o
 .group         0x0000000000000000        0xc ./component/lists/generic_list.o
 .group         0x0000000000000000        0xc ./component/lists/generic_list.o
 .group         0x0000000000000000        0xc ./component/lists/generic_list.o
 .group         0x0000000000000000        0xc ./component/lists/generic_list.o
 .group         0x0000000000000000        0xc ./component/lists/generic_list.o
 .group         0x0000000000000000        0xc ./component/lists/generic_list.o
 .group         0x0000000000000000        0xc ./component/lists/generic_list.o
 .group         0x0000000000000000        0xc ./component/lists/generic_list.o
 .group         0x0000000000000000        0xc ./component/lists/generic_list.o
 .group         0x0000000000000000        0xc ./component/lists/generic_list.o
 .group         0x0000000000000000        0xc ./component/lists/generic_list.o
 .group         0x0000000000000000        0xc ./component/lists/generic_list.o
 .group         0x0000000000000000        0xc ./component/lists/generic_list.o
 .group         0x0000000000000000        0xc ./component/lists/generic_list.o
 .group         0x0000000000000000        0xc ./component/lists/generic_list.o
 .group         0x0000000000000000        0xc ./component/lists/generic_list.o
 .group         0x0000000000000000        0xc ./component/lists/generic_list.o
 .group         0x0000000000000000        0xc ./component/lists/generic_list.o
 .text          0x0000000000000000        0x0 ./component/lists/generic_list.o
 .data          0x0000000000000000        0x0 ./component/lists/generic_list.o
 .bss           0x0000000000000000        0x0 ./component/lists/generic_list.o
 .text.DisableGlobalIRQ
                0x0000000000000000       0x20 ./component/lists/generic_list.o
 .text.EnableGlobalIRQ
                0x0000000000000000       0x1e ./component/lists/generic_list.o
 .text.LIST_Scan
                0x0000000000000000       0x3a ./component/lists/generic_list.o
 .text.LIST_Init
                0x0000000000000000       0x30 ./component/lists/generic_list.o
 .text.LIST_GetList
                0x0000000000000000       0x18 ./component/lists/generic_list.o
 .text.LIST_AddTail
                0x0000000000000000       0x9e ./component/lists/generic_list.o
 .text.LIST_AddHead
                0x0000000000000000       0x9e ./component/lists/generic_list.o
 .text.LIST_RemoveHead
                0x0000000000000000       0x6e ./component/lists/generic_list.o
 .text.LIST_GetHead
                0x0000000000000000       0x18 ./component/lists/generic_list.o
 .text.LIST_GetNext
                0x0000000000000000       0x18 ./component/lists/generic_list.o
 .text.LIST_GetPrev
                0x0000000000000000       0x18 ./component/lists/generic_list.o
 .text.LIST_RemoveElement
                0x0000000000000000       0x86 ./component/lists/generic_list.o
 .text.LIST_AddPrevElement
                0x0000000000000000       0xba ./component/lists/generic_list.o
 .text.LIST_GetSize
                0x0000000000000000       0x18 ./component/lists/generic_list.o
 .text.LIST_GetAvailableSize
                0x0000000000000000       0x20 ./component/lists/generic_list.o
 .debug_info    0x0000000000000000      0x5b7 ./component/lists/generic_list.o
 .debug_abbrev  0x0000000000000000      0x2c3 ./component/lists/generic_list.o
 .debug_aranges
                0x0000000000000000       0x90 ./component/lists/generic_list.o
 .debug_ranges  0x0000000000000000       0x80 ./component/lists/generic_list.o
 .debug_macro   0x0000000000000000      0x107 ./component/lists/generic_list.o
 .debug_macro   0x0000000000000000      0xafc ./component/lists/generic_list.o
 .debug_macro   0x0000000000000000       0x10 ./component/lists/generic_list.o
 .debug_macro   0x0000000000000000       0x1c ./component/lists/generic_list.o
 .debug_macro   0x0000000000000000       0x22 ./component/lists/generic_list.o
 .debug_macro   0x0000000000000000      0x12e ./component/lists/generic_list.o
 .debug_macro   0x0000000000000000      0x5b3 ./component/lists/generic_list.o
 .debug_macro   0x0000000000000000       0x22 ./component/lists/generic_list.o
 .debug_macro   0x0000000000000000       0x10 ./component/lists/generic_list.o
 .debug_macro   0x0000000000000000       0x4d ./component/lists/generic_list.o
 .debug_macro   0x0000000000000000       0x1c ./component/lists/generic_list.o
 .debug_macro   0x0000000000000000       0x22 ./component/lists/generic_list.o
 .debug_macro   0x0000000000000000       0xd8 ./component/lists/generic_list.o
 .debug_macro   0x0000000000000000     0x1305 ./component/lists/generic_list.o
 .debug_macro   0x0000000000000000      0x11f ./component/lists/generic_list.o
 .debug_macro   0x0000000000000000       0x20 ./component/lists/generic_list.o
 .debug_macro   0x0000000000000000       0x1c ./component/lists/generic_list.o
 .debug_macro   0x0000000000000000    0x1ffc2 ./component/lists/generic_list.o
 .debug_macro   0x0000000000000000      0x678 ./component/lists/generic_list.o
 .debug_macro   0x0000000000000000       0xd7 ./component/lists/generic_list.o
 .debug_macro   0x0000000000000000      0x1fb ./component/lists/generic_list.o
 .debug_line    0x0000000000000000      0x735 ./component/lists/generic_list.o
 .debug_str     0x0000000000000000   0x11679b ./component/lists/generic_list.o
 .comment       0x0000000000000000       0x77 ./component/lists/generic_list.o
 .debug_frame   0x0000000000000000      0x254 ./component/lists/generic_list.o
 .ARM.attributes
                0x0000000000000000       0x32 ./component/lists/generic_list.o
 .group         0x0000000000000000        0xc ./board/board.o
 .group         0x0000000000000000        0xc ./board/board.o
 .group         0x0000000000000000        0xc ./board/board.o
 .group         0x0000000000000000        0xc ./board/board.o
 .group         0x0000000000000000        0xc ./board/board.o
 .group         0x0000000000000000        0xc ./board/board.o
 .group         0x0000000000000000        0xc ./board/board.o
 .group         0x0000000000000000        0xc ./board/board.o
 .group         0x0000000000000000        0xc ./board/board.o
 .group         0x0000000000000000        0xc ./board/board.o
 .group         0x0000000000000000        0xc ./board/board.o
 .group         0x0000000000000000        0xc ./board/board.o
 .group         0x0000000000000000        0xc ./board/board.o
 .group         0x0000000000000000        0xc ./board/board.o
 .group         0x0000000000000000        0xc ./board/board.o
 .group         0x0000000000000000        0xc ./board/board.o
 .group         0x0000000000000000        0xc ./board/board.o
 .group         0x0000000000000000        0xc ./board/board.o
 .group         0x0000000000000000        0xc ./board/board.o
 .group         0x0000000000000000        0xc ./board/board.o
 .group         0x0000000000000000        0xc ./board/board.o
 .group         0x0000000000000000        0xc ./board/board.o
 .group         0x0000000000000000        0xc ./board/board.o
 .group         0x0000000000000000        0xc ./board/board.o
 .group         0x0000000000000000        0xc ./board/board.o
 .group         0x0000000000000000        0xc ./board/board.o
 .group         0x0000000000000000        0xc ./board/board.o
 .group         0x0000000000000000        0xc ./board/board.o
 .group         0x0000000000000000        0xc ./board/board.o
 .group         0x0000000000000000        0xc ./board/board.o
 .text          0x0000000000000000        0x0 ./board/board.o
 .data          0x0000000000000000        0x0 ./board/board.o
 .bss           0x0000000000000000        0x0 ./board/board.o
 .text.IOMUXC_SetPinConfig
                0x0000000000000000       0x26 ./board/board.o
 .text.BOARD_SD_Pin_Config
                0x0000000000000000      0x12c ./board/board.o
 .text.BOARD_MMC_Pin_Config
                0x0000000000000000       0x16 ./board/board.o
 .debug_macro   0x0000000000000000      0xafc ./board/board.o
 .debug_macro   0x0000000000000000       0x10 ./board/board.o
 .debug_macro   0x0000000000000000       0x1c ./board/board.o
 .debug_macro   0x0000000000000000       0x22 ./board/board.o
 .debug_macro   0x0000000000000000      0x12e ./board/board.o
 .debug_macro   0x0000000000000000      0x5b3 ./board/board.o
 .debug_macro   0x0000000000000000       0x22 ./board/board.o
 .debug_macro   0x0000000000000000       0x10 ./board/board.o
 .debug_macro   0x0000000000000000       0x4d ./board/board.o
 .debug_macro   0x0000000000000000       0x1c ./board/board.o
 .debug_macro   0x0000000000000000       0x22 ./board/board.o
 .debug_macro   0x0000000000000000       0xd8 ./board/board.o
 .debug_macro   0x0000000000000000     0x1305 ./board/board.o
 .debug_macro   0x0000000000000000      0x11f ./board/board.o
 .debug_macro   0x0000000000000000       0x20 ./board/board.o
 .debug_macro   0x0000000000000000       0x1c ./board/board.o
 .debug_macro   0x0000000000000000    0x1ffc2 ./board/board.o
 .debug_macro   0x0000000000000000      0x678 ./board/board.o
 .debug_macro   0x0000000000000000       0xd7 ./board/board.o
 .debug_macro   0x0000000000000000      0x1fb ./board/board.o
 .debug_macro   0x0000000000000000       0x2e ./board/board.o
 .debug_macro   0x0000000000000000       0x28 ./board/board.o
 .debug_macro   0x0000000000000000       0x32 ./board/board.o
 .debug_macro   0x0000000000000000       0x16 ./board/board.o
 .debug_macro   0x0000000000000000       0xd2 ./board/board.o
 .debug_macro   0x0000000000000000       0x1c ./board/board.o
 .debug_macro   0x0000000000000000      0x10c ./board/board.o
 .debug_macro   0x0000000000000000       0x10 ./board/board.o
 .debug_macro   0x0000000000000000      0x23d ./board/board.o
 .group         0x0000000000000000        0xc ./board/clock_config.o
 .group         0x0000000000000000        0xc ./board/clock_config.o
 .group         0x0000000000000000        0xc ./board/clock_config.o
 .group         0x0000000000000000        0xc ./board/clock_config.o
 .group         0x0000000000000000        0xc ./board/clock_config.o
 .group         0x0000000000000000        0xc ./board/clock_config.o
 .group         0x0000000000000000        0xc ./board/clock_config.o
 .group         0x0000000000000000        0xc ./board/clock_config.o
 .group         0x0000000000000000        0xc ./board/clock_config.o
 .group         0x0000000000000000        0xc ./board/clock_config.o
 .group         0x0000000000000000        0xc ./board/clock_config.o
 .group         0x0000000000000000        0xc ./board/clock_config.o
 .group         0x0000000000000000        0xc ./board/clock_config.o
 .group         0x0000000000000000        0xc ./board/clock_config.o
 .group         0x0000000000000000        0xc ./board/clock_config.o
 .group         0x0000000000000000        0xc ./board/clock_config.o
 .group         0x0000000000000000        0xc ./board/clock_config.o
 .group         0x0000000000000000        0xc ./board/clock_config.o
 .group         0x0000000000000000        0xc ./board/clock_config.o
 .group         0x0000000000000000        0xc ./board/clock_config.o
 .group         0x0000000000000000        0xc ./board/clock_config.o
 .group         0x0000000000000000        0xc ./board/clock_config.o
 .text          0x0000000000000000        0x0 ./board/clock_config.o
 .data          0x0000000000000000        0x0 ./board/clock_config.o
 .bss           0x0000000000000000        0x0 ./board/clock_config.o
 .text.BOARD_InitBootClocks
                0x0000000000000000        0xc ./board/clock_config.o
 .rodata.usb1PllConfig_BOARD_BootClockRUN
                0x0000000000000000        0x2 ./board/clock_config.o
 .debug_macro   0x0000000000000000      0xafc ./board/clock_config.o
 .debug_macro   0x0000000000000000       0x10 ./board/clock_config.o
 .debug_macro   0x0000000000000000       0x1c ./board/clock_config.o
 .debug_macro   0x0000000000000000       0x22 ./board/clock_config.o
 .debug_macro   0x0000000000000000      0x12e ./board/clock_config.o
 .debug_macro   0x0000000000000000      0x5b3 ./board/clock_config.o
 .debug_macro   0x0000000000000000       0x22 ./board/clock_config.o
 .debug_macro   0x0000000000000000       0x10 ./board/clock_config.o
 .debug_macro   0x0000000000000000       0x4d ./board/clock_config.o
 .debug_macro   0x0000000000000000       0x1c ./board/clock_config.o
 .debug_macro   0x0000000000000000       0x22 ./board/clock_config.o
 .debug_macro   0x0000000000000000       0xd8 ./board/clock_config.o
 .debug_macro   0x0000000000000000     0x1305 ./board/clock_config.o
 .debug_macro   0x0000000000000000      0x11f ./board/clock_config.o
 .debug_macro   0x0000000000000000       0x20 ./board/clock_config.o
 .debug_macro   0x0000000000000000       0x1c ./board/clock_config.o
 .debug_macro   0x0000000000000000    0x1ffc2 ./board/clock_config.o
 .debug_macro   0x0000000000000000      0x678 ./board/clock_config.o
 .debug_macro   0x0000000000000000       0xd7 ./board/clock_config.o
 .debug_macro   0x0000000000000000      0x1fb ./board/clock_config.o
 .debug_macro   0x0000000000000000      0x106 ./board/clock_config.o
 .debug_macro   0x0000000000000000     0x11de ./board/clock_config.o
 .group         0x0000000000000000        0xc ./board/pin_mux.o
 .group         0x0000000000000000        0xc ./board/pin_mux.o
 .group         0x0000000000000000        0xc ./board/pin_mux.o
 .group         0x0000000000000000        0xc ./board/pin_mux.o
 .group         0x0000000000000000        0xc ./board/pin_mux.o
 .group         0x0000000000000000        0xc ./board/pin_mux.o
 .group         0x0000000000000000        0xc ./board/pin_mux.o
 .group         0x0000000000000000        0xc ./board/pin_mux.o
 .group         0x0000000000000000        0xc ./board/pin_mux.o
 .group         0x0000000000000000        0xc ./board/pin_mux.o
 .group         0x0000000000000000        0xc ./board/pin_mux.o
 .group         0x0000000000000000        0xc ./board/pin_mux.o
 .group         0x0000000000000000        0xc ./board/pin_mux.o
 .group         0x0000000000000000        0xc ./board/pin_mux.o
 .group         0x0000000000000000        0xc ./board/pin_mux.o
 .group         0x0000000000000000        0xc ./board/pin_mux.o
 .group         0x0000000000000000        0xc ./board/pin_mux.o
 .group         0x0000000000000000        0xc ./board/pin_mux.o
 .group         0x0000000000000000        0xc ./board/pin_mux.o
 .group         0x0000000000000000        0xc ./board/pin_mux.o
 .group         0x0000000000000000        0xc ./board/pin_mux.o
 .text          0x0000000000000000        0x0 ./board/pin_mux.o
 .data          0x0000000000000000        0x0 ./board/pin_mux.o
 .bss           0x0000000000000000        0x0 ./board/pin_mux.o
 .text.BOARD_InitBootPins
                0x0000000000000000        0xc ./board/pin_mux.o
 .debug_macro   0x0000000000000000      0xafc ./board/pin_mux.o
 .debug_macro   0x0000000000000000       0x10 ./board/pin_mux.o
 .debug_macro   0x0000000000000000       0x1c ./board/pin_mux.o
 .debug_macro   0x0000000000000000       0x22 ./board/pin_mux.o
 .debug_macro   0x0000000000000000      0x12e ./board/pin_mux.o
 .debug_macro   0x0000000000000000      0x5b3 ./board/pin_mux.o
 .debug_macro   0x0000000000000000       0x22 ./board/pin_mux.o
 .debug_macro   0x0000000000000000       0x10 ./board/pin_mux.o
 .debug_macro   0x0000000000000000       0x4d ./board/pin_mux.o
 .debug_macro   0x0000000000000000       0x1c ./board/pin_mux.o
 .debug_macro   0x0000000000000000       0x22 ./board/pin_mux.o
 .debug_macro   0x0000000000000000       0xd8 ./board/pin_mux.o
 .debug_macro   0x0000000000000000     0x1305 ./board/pin_mux.o
 .debug_macro   0x0000000000000000      0x11f ./board/pin_mux.o
 .debug_macro   0x0000000000000000       0x20 ./board/pin_mux.o
 .debug_macro   0x0000000000000000       0x1c ./board/pin_mux.o
 .debug_macro   0x0000000000000000    0x1ffc2 ./board/pin_mux.o
 .debug_macro   0x0000000000000000      0x678 ./board/pin_mux.o
 .debug_macro   0x0000000000000000       0xd7 ./board/pin_mux.o
 .debug_macro   0x0000000000000000      0x1fb ./board/pin_mux.o
 .debug_macro   0x0000000000000000     0x11de ./board/pin_mux.o
 .text          0x0000000000000000        0x0 /usr/local/mcuxpressoide-11.1.0_3209/ide/plugins/com.nxp.mcuxpresso.tools.linux_11.1.0.201909161352/tools/bin/../lib/gcc/arm-none-eabi/8.3.1/../../../../arm-none-eabi/lib/thumb/v7e-m+dp/hard/libcr_semihost_nf.a(_cr__main.o)
 .data          0x0000000000000000        0x0 /usr/local/mcuxpressoide-11.1.0_3209/ide/plugins/com.nxp.mcuxpresso.tools.linux_11.1.0.201909161352/tools/bin/../lib/gcc/arm-none-eabi/8.3.1/../../../../arm-none-eabi/lib/thumb/v7e-m+dp/hard/libcr_semihost_nf.a(_cr__main.o)
 .bss           0x0000000000000000        0x0 /usr/local/mcuxpressoide-11.1.0_3209/ide/plugins/com.nxp.mcuxpresso.tools.linux_11.1.0.201909161352/tools/bin/../lib/gcc/arm-none-eabi/8.3.1/../../../../arm-none-eabi/lib/thumb/v7e-m+dp/hard/libcr_semihost_nf.a(_cr__main.o)
 .text          0x0000000000000000        0x0 /usr/local/mcuxpressoide-11.1.0_3209/ide/plugins/com.nxp.mcuxpresso.tools.linux_11.1.0.201909161352/tools/bin/../lib/gcc/arm-none-eabi/8.3.1/../../../../arm-none-eabi/lib/thumb/v7e-m+dp/hard/libcr_c.a(memset.o)
 .data          0x0000000000000000        0x0 /usr/local/mcuxpressoide-11.1.0_3209/ide/plugins/com.nxp.mcuxpresso.tools.linux_11.1.0.201909161352/tools/bin/../lib/gcc/arm-none-eabi/8.3.1/../../../../arm-none-eabi/lib/thumb/v7e-m+dp/hard/libcr_c.a(memset.o)
 .bss           0x0000000000000000        0x0 /usr/local/mcuxpressoide-11.1.0_3209/ide/plugins/com.nxp.mcuxpresso.tools.linux_11.1.0.201909161352/tools/bin/../lib/gcc/arm-none-eabi/8.3.1/../../../../arm-none-eabi/lib/thumb/v7e-m+dp/hard/libcr_c.a(memset.o)
 .text          0x0000000000000000        0x0 /usr/local/mcuxpressoide-11.1.0_3209/ide/plugins/com.nxp.mcuxpresso.tools.linux_11.1.0.201909161352/tools/bin/../lib/gcc/arm-none-eabi/8.3.1/../../../../arm-none-eabi/lib/thumb/v7e-m+dp/hard/libcr_c.a(alloc.o)
 .data          0x0000000000000000        0x0 /usr/local/mcuxpressoide-11.1.0_3209/ide/plugins/com.nxp.mcuxpresso.tools.linux_11.1.0.201909161352/tools/bin/../lib/gcc/arm-none-eabi/8.3.1/../../../../arm-none-eabi/lib/thumb/v7e-m+dp/hard/libcr_c.a(alloc.o)
 .bss           0x0000000000000000        0x0 /usr/local/mcuxpressoide-11.1.0_3209/ide/plugins/com.nxp.mcuxpresso.tools.linux_11.1.0.201909161352/tools/bin/../lib/gcc/arm-none-eabi/8.3.1/../../../../arm-none-eabi/lib/thumb/v7e-m+dp/hard/libcr_c.a(alloc.o)
 .text.calloc   0x0000000000000000       0x50 /usr/local/mcuxpressoide-11.1.0_3209/ide/plugins/com.nxp.mcuxpresso.tools.linux_11.1.0.201909161352/tools/bin/../lib/gcc/arm-none-eabi/8.3.1/../../../../arm-none-eabi/lib/thumb/v7e-m+dp/hard/libcr_c.a(alloc.o)
 .text.realloc  0x0000000000000000       0x24 /usr/local/mcuxpressoide-11.1.0_3209/ide/plugins/com.nxp.mcuxpresso.tools.linux_11.1.0.201909161352/tools/bin/../lib/gcc/arm-none-eabi/8.3.1/../../../../arm-none-eabi/lib/thumb/v7e-m+dp/hard/libcr_c.a(alloc.o)
 .text          0x0000000000000000        0x0 /usr/local/mcuxpressoide-11.1.0_3209/ide/plugins/com.nxp.mcuxpresso.tools.linux_11.1.0.201909161352/tools/bin/../lib/gcc/arm-none-eabi/8.3.1/../../../../arm-none-eabi/lib/thumb/v7e-m+dp/hard/libcr_c.a(initio.o)
 .data          0x0000000000000000        0x0 /usr/local/mcuxpressoide-11.1.0_3209/ide/plugins/com.nxp.mcuxpresso.tools.linux_11.1.0.201909161352/tools/bin/../lib/gcc/arm-none-eabi/8.3.1/../../../../arm-none-eabi/lib/thumb/v7e-m+dp/hard/libcr_c.a(initio.o)
 .bss           0x0000000000000000        0x0 /usr/local/mcuxpressoide-11.1.0_3209/ide/plugins/com.nxp.mcuxpresso.tools.linux_11.1.0.201909161352/tools/bin/../lib/gcc/arm-none-eabi/8.3.1/../../../../arm-none-eabi/lib/thumb/v7e-m+dp/hard/libcr_c.a(initio.o)
 .text._terminateio
                0x0000000000000000       0x50 /usr/local/mcuxpressoide-11.1.0_3209/ide/plugins/com.nxp.mcuxpresso.tools.linux_11.1.0.201909161352/tools/bin/../lib/gcc/arm-none-eabi/8.3.1/../../../../arm-none-eabi/lib/thumb/v7e-m+dp/hard/libcr_c.a(initio.o)
 .text          0x0000000000000000        0x0 /usr/local/mcuxpressoide-11.1.0_3209/ide/plugins/com.nxp.mcuxpresso.tools.linux_11.1.0.201909161352/tools/bin/../lib/gcc/arm-none-eabi/8.3.1/../../../../arm-none-eabi/lib/thumb/v7e-m+dp/hard/libcr_c.a(printf.o)
 .data          0x0000000000000000        0x0 /usr/local/mcuxpressoide-11.1.0_3209/ide/plugins/com.nxp.mcuxpresso.tools.linux_11.1.0.201909161352/tools/bin/../lib/gcc/arm-none-eabi/8.3.1/../../../../arm-none-eabi/lib/thumb/v7e-m+dp/hard/libcr_c.a(printf.o)
 .bss           0x0000000000000000        0x0 /usr/local/mcuxpressoide-11.1.0_3209/ide/plugins/com.nxp.mcuxpresso.tools.linux_11.1.0.201909161352/tools/bin/../lib/gcc/arm-none-eabi/8.3.1/../../../../arm-none-eabi/lib/thumb/v7e-m+dp/hard/libcr_c.a(printf.o)
 .text._fprintf
                0x0000000000000000       0x30 /usr/local/mcuxpressoide-11.1.0_3209/ide/plugins/com.nxp.mcuxpresso.tools.linux_11.1.0.201909161352/tools/bin/../lib/gcc/arm-none-eabi/8.3.1/../../../../arm-none-eabi/lib/thumb/v7e-m+dp/hard/libcr_c.a(printf.o)
 .text._printf_char
                0x0000000000000000       0x34 /usr/local/mcuxpressoide-11.1.0_3209/ide/plugins/com.nxp.mcuxpresso.tools.linux_11.1.0.201909161352/tools/bin/../lib/gcc/arm-none-eabi/8.3.1/../../../../arm-none-eabi/lib/thumb/v7e-m+dp/hard/libcr_c.a(printf.o)
 .text._sprintf
                0x0000000000000000       0x6c /usr/local/mcuxpressoide-11.1.0_3209/ide/plugins/com.nxp.mcuxpresso.tools.linux_11.1.0.201909161352/tools/bin/../lib/gcc/arm-none-eabi/8.3.1/../../../../arm-none-eabi/lib/thumb/v7e-m+dp/hard/libcr_c.a(printf.o)
 .text._snprintf
                0x0000000000000000       0x78 /usr/local/mcuxpressoide-11.1.0_3209/ide/plugins/com.nxp.mcuxpresso.tools.linux_11.1.0.201909161352/tools/bin/../lib/gcc/arm-none-eabi/8.3.1/../../../../arm-none-eabi/lib/thumb/v7e-m+dp/hard/libcr_c.a(printf.o)
 .text._vfprintf
                0x0000000000000000       0x20 /usr/local/mcuxpressoide-11.1.0_3209/ide/plugins/com.nxp.mcuxpresso.tools.linux_11.1.0.201909161352/tools/bin/../lib/gcc/arm-none-eabi/8.3.1/../../../../arm-none-eabi/lib/thumb/v7e-m+dp/hard/libcr_c.a(printf.o)
 .text._vprintf
                0x0000000000000000       0x28 /usr/local/mcuxpressoide-11.1.0_3209/ide/plugins/com.nxp.mcuxpresso.tools.linux_11.1.0.201909161352/tools/bin/../lib/gcc/arm-none-eabi/8.3.1/../../../../arm-none-eabi/lib/thumb/v7e-m+dp/hard/libcr_c.a(printf.o)
 .text._vsprintf
                0x0000000000000000       0x5c /usr/local/mcuxpressoide-11.1.0_3209/ide/plugins/com.nxp.mcuxpresso.tools.linux_11.1.0.201909161352/tools/bin/../lib/gcc/arm-none-eabi/8.3.1/../../../../arm-none-eabi/lib/thumb/v7e-m+dp/hard/libcr_c.a(printf.o)
 .text          0x0000000000000000        0x0 /usr/local/mcuxpressoide-11.1.0_3209/ide/plugins/com.nxp.mcuxpresso.tools.linux_11.1.0.201909161352/tools/bin/../lib/gcc/arm-none-eabi/8.3.1/../../../../arm-none-eabi/lib/thumb/v7e-m+dp/hard/libcr_c.a(setvbuf.o)
 .data          0x0000000000000000        0x0 /usr/local/mcuxpressoide-11.1.0_3209/ide/plugins/com.nxp.mcuxpresso.tools.linux_11.1.0.201909161352/tools/bin/../lib/gcc/arm-none-eabi/8.3.1/../../../../arm-none-eabi/lib/thumb/v7e-m+dp/hard/libcr_c.a(setvbuf.o)
 .bss           0x0000000000000000        0x0 /usr/local/mcuxpressoide-11.1.0_3209/ide/plugins/com.nxp.mcuxpresso.tools.linux_11.1.0.201909161352/tools/bin/../lib/gcc/arm-none-eabi/8.3.1/../../../../arm-none-eabi/lib/thumb/v7e-m+dp/hard/libcr_c.a(setvbuf.o)
 .text          0x0000000000000000        0x0 /usr/local/mcuxpressoide-11.1.0_3209/ide/plugins/com.nxp.mcuxpresso.tools.linux_11.1.0.201909161352/tools/bin/../lib/gcc/arm-none-eabi/8.3.1/../../../../arm-none-eabi/lib/thumb/v7e-m+dp/hard/libcr_c.a(strlen.o)
 .data          0x0000000000000000        0x0 /usr/local/mcuxpressoide-11.1.0_3209/ide/plugins/com.nxp.mcuxpresso.tools.linux_11.1.0.201909161352/tools/bin/../lib/gcc/arm-none-eabi/8.3.1/../../../../arm-none-eabi/lib/thumb/v7e-m+dp/hard/libcr_c.a(strlen.o)
 .bss           0x0000000000000000        0x0 /usr/local/mcuxpressoide-11.1.0_3209/ide/plugins/com.nxp.mcuxpresso.tools.linux_11.1.0.201909161352/tools/bin/../lib/gcc/arm-none-eabi/8.3.1/../../../../arm-none-eabi/lib/thumb/v7e-m+dp/hard/libcr_c.a(strlen.o)
 .text          0x0000000000000000        0x0 /usr/local/mcuxpressoide-11.1.0_3209/ide/plugins/com.nxp.mcuxpresso.tools.linux_11.1.0.201909161352/tools/bin/../lib/gcc/arm-none-eabi/8.3.1/../../../../arm-none-eabi/lib/thumb/v7e-m+dp/hard/libcr_c.a(memcpy.o)
 .data          0x0000000000000000        0x0 /usr/local/mcuxpressoide-11.1.0_3209/ide/plugins/com.nxp.mcuxpresso.tools.linux_11.1.0.201909161352/tools/bin/../lib/gcc/arm-none-eabi/8.3.1/../../../../arm-none-eabi/lib/thumb/v7e-m+dp/hard/libcr_c.a(memcpy.o)
 .bss           0x0000000000000000        0x0 /usr/local/mcuxpressoide-11.1.0_3209/ide/plugins/com.nxp.mcuxpresso.tools.linux_11.1.0.201909161352/tools/bin/../lib/gcc/arm-none-eabi/8.3.1/../../../../arm-none-eabi/lib/thumb/v7e-m+dp/hard/libcr_c.a(memcpy.o)
 .text.memcpy   0x0000000000000000        0x4 /usr/local/mcuxpressoide-11.1.0_3209/ide/plugins/com.nxp.mcuxpresso.tools.linux_11.1.0.201909161352/tools/bin/../lib/gcc/arm-none-eabi/8.3.1/../../../../arm-none-eabi/lib/thumb/v7e-m+dp/hard/libcr_c.a(memcpy.o)
 .comment       0x0000000000000000       0x77 /usr/local/mcuxpressoide-11.1.0_3209/ide/plugins/com.nxp.mcuxpresso.tools.linux_11.1.0.201909161352/tools/bin/../lib/gcc/arm-none-eabi/8.3.1/../../../../arm-none-eabi/lib/thumb/v7e-m+dp/hard/libcr_c.a(memcpy.o)
 .ARM.attributes
                0x0000000000000000       0x32 /usr/local/mcuxpressoide-11.1.0_3209/ide/plugins/com.nxp.mcuxpresso.tools.linux_11.1.0.201909161352/tools/bin/../lib/gcc/arm-none-eabi/8.3.1/../../../../arm-none-eabi/lib/thumb/v7e-m+dp/hard/libcr_c.a(memcpy.o)
 .text          0x0000000000000000        0x0 /usr/local/mcuxpressoide-11.1.0_3209/ide/plugins/com.nxp.mcuxpresso.tools.linux_11.1.0.201909161352/tools/bin/../lib/gcc/arm-none-eabi/8.3.1/../../../../arm-none-eabi/lib/thumb/v7e-m+dp/hard/libcr_c.a(__init_alloc.o)
 .data          0x0000000000000000        0x0 /usr/local/mcuxpressoide-11.1.0_3209/ide/plugins/com.nxp.mcuxpresso.tools.linux_11.1.0.201909161352/tools/bin/../lib/gcc/arm-none-eabi/8.3.1/../../../../arm-none-eabi/lib/thumb/v7e-m+dp/hard/libcr_c.a(__init_alloc.o)
 .bss           0x0000000000000000        0x0 /usr/local/mcuxpressoide-11.1.0_3209/ide/plugins/com.nxp.mcuxpresso.tools.linux_11.1.0.201909161352/tools/bin/../lib/gcc/arm-none-eabi/8.3.1/../../../../arm-none-eabi/lib/thumb/v7e-m+dp/hard/libcr_c.a(__init_alloc.o)
 .text._init_alloc
                0x0000000000000000       0x14 /usr/local/mcuxpressoide-11.1.0_3209/ide/plugins/com.nxp.mcuxpresso.tools.linux_11.1.0.201909161352/tools/bin/../lib/gcc/arm-none-eabi/8.3.1/../../../../arm-none-eabi/lib/thumb/v7e-m+dp/hard/libcr_c.a(__init_alloc.o)
 .text          0x0000000000000000        0x0 /usr/local/mcuxpressoide-11.1.0_3209/ide/plugins/com.nxp.mcuxpresso.tools.linux_11.1.0.201909161352/tools/bin/../lib/gcc/arm-none-eabi/8.3.1/../../../../arm-none-eabi/lib/thumb/v7e-m+dp/hard/libcr_c.a(_cr_sbrk.o)
 .data          0x0000000000000000        0x0 /usr/local/mcuxpressoide-11.1.0_3209/ide/plugins/com.nxp.mcuxpresso.tools.linux_11.1.0.201909161352/tools/bin/../lib/gcc/arm-none-eabi/8.3.1/../../../../arm-none-eabi/lib/thumb/v7e-m+dp/hard/libcr_c.a(_cr_sbrk.o)
 .bss           0x0000000000000000        0x0 /usr/local/mcuxpressoide-11.1.0_3209/ide/plugins/com.nxp.mcuxpresso.tools.linux_11.1.0.201909161352/tools/bin/../lib/gcc/arm-none-eabi/8.3.1/../../../../arm-none-eabi/lib/thumb/v7e-m+dp/hard/libcr_c.a(_cr_sbrk.o)
 .text          0x0000000000000000        0x0 /usr/local/mcuxpressoide-11.1.0_3209/ide/plugins/com.nxp.mcuxpresso.tools.linux_11.1.0.201909161352/tools/bin/../lib/gcc/arm-none-eabi/8.3.1/../../../../arm-none-eabi/lib/thumb/v7e-m+dp/hard/libcr_c.a(_deferredlazyseek.o)
 .data          0x0000000000000000        0x0 /usr/local/mcuxpressoide-11.1.0_3209/ide/plugins/com.nxp.mcuxpresso.tools.linux_11.1.0.201909161352/tools/bin/../lib/gcc/arm-none-eabi/8.3.1/../../../../arm-none-eabi/lib/thumb/v7e-m+dp/hard/libcr_c.a(_deferredlazyseek.o)
 .bss           0x0000000000000000        0x0 /usr/local/mcuxpressoide-11.1.0_3209/ide/plugins/com.nxp.mcuxpresso.tools.linux_11.1.0.201909161352/tools/bin/../lib/gcc/arm-none-eabi/8.3.1/../../../../arm-none-eabi/lib/thumb/v7e-m+dp/hard/libcr_c.a(_deferredlazyseek.o)
 .text          0x0000000000000000        0x0 /usr/local/mcuxpressoide-11.1.0_3209/ide/plugins/com.nxp.mcuxpresso.tools.linux_11.1.0.201909161352/tools/bin/../lib/gcc/arm-none-eabi/8.3.1/../../../../arm-none-eabi/lib/thumb/v7e-m+dp/hard/libcr_c.a(_fdopen.o)
 .data          0x0000000000000000        0x0 /usr/local/mcuxpressoide-11.1.0_3209/ide/plugins/com.nxp.mcuxpresso.tools.linux_11.1.0.201909161352/tools/bin/../lib/gcc/arm-none-eabi/8.3.1/../../../../arm-none-eabi/lib/thumb/v7e-m+dp/hard/libcr_c.a(_fdopen.o)
 .bss           0x0000000000000000        0x0 /usr/local/mcuxpressoide-11.1.0_3209/ide/plugins/com.nxp.mcuxpresso.tools.linux_11.1.0.201909161352/tools/bin/../lib/gcc/arm-none-eabi/8.3.1/../../../../arm-none-eabi/lib/thumb/v7e-m+dp/hard/libcr_c.a(_fdopen.o)
 .text          0x0000000000000000        0x0 /usr/local/mcuxpressoide-11.1.0_3209/ide/plugins/com.nxp.mcuxpresso.tools.linux_11.1.0.201909161352/tools/bin/../lib/gcc/arm-none-eabi/8.3.1/../../../../arm-none-eabi/lib/thumb/v7e-m+dp/hard/libcr_c.a(_fflush.o)
 .data          0x0000000000000000        0x0 /usr/local/mcuxpressoide-11.1.0_3209/ide/plugins/com.nxp.mcuxpresso.tools.linux_11.1.0.201909161352/tools/bin/../lib/gcc/arm-none-eabi/8.3.1/../../../../arm-none-eabi/lib/thumb/v7e-m+dp/hard/libcr_c.a(_fflush.o)
 .bss           0x0000000000000000        0x0 /usr/local/mcuxpressoide-11.1.0_3209/ide/plugins/com.nxp.mcuxpresso.tools.linux_11.1.0.201909161352/tools/bin/../lib/gcc/arm-none-eabi/8.3.1/../../../../arm-none-eabi/lib/thumb/v7e-m+dp/hard/libcr_c.a(_fflush.o)
 .text          0x0000000000000000        0x0 /usr/local/mcuxpressoide-11.1.0_3209/ide/plugins/com.nxp.mcuxpresso.tools.linux_11.1.0.201909161352/tools/bin/../lib/gcc/arm-none-eabi/8.3.1/../../../../arm-none-eabi/lib/thumb/v7e-m+dp/hard/libcr_c.a(_writebuf.o)
 .data          0x0000000000000000        0x0 /usr/local/mcuxpressoide-11.1.0_3209/ide/plugins/com.nxp.mcuxpresso.tools.linux_11.1.0.201909161352/tools/bin/../lib/gcc/arm-none-eabi/8.3.1/../../../../arm-none-eabi/lib/thumb/v7e-m+dp/hard/libcr_c.a(_writebuf.o)
 .bss           0x0000000000000000        0x0 /usr/local/mcuxpressoide-11.1.0_3209/ide/plugins/com.nxp.mcuxpresso.tools.linux_11.1.0.201909161352/tools/bin/../lib/gcc/arm-none-eabi/8.3.1/../../../../arm-none-eabi/lib/thumb/v7e-m+dp/hard/libcr_c.a(_writebuf.o)
 .text          0x0000000000000000        0x0 /usr/local/mcuxpressoide-11.1.0_3209/ide/plugins/com.nxp.mcuxpresso.tools.linux_11.1.0.201909161352/tools/bin/../lib/gcc/arm-none-eabi/8.3.1/../../../../arm-none-eabi/lib/thumb/v7e-m+dp/hard/libcr_c.a(errno.o)
 .data          0x0000000000000000        0x0 /usr/local/mcuxpressoide-11.1.0_3209/ide/plugins/com.nxp.mcuxpresso.tools.linux_11.1.0.201909161352/tools/bin/../lib/gcc/arm-none-eabi/8.3.1/../../../../arm-none-eabi/lib/thumb/v7e-m+dp/hard/libcr_c.a(errno.o)
 .bss           0x0000000000000000        0x0 /usr/local/mcuxpressoide-11.1.0_3209/ide/plugins/com.nxp.mcuxpresso.tools.linux_11.1.0.201909161352/tools/bin/../lib/gcc/arm-none-eabi/8.3.1/../../../../arm-none-eabi/lib/thumb/v7e-m+dp/hard/libcr_c.a(errno.o)
 .text          0x0000000000000000        0x0 /usr/local/mcuxpressoide-11.1.0_3209/ide/plugins/com.nxp.mcuxpresso.tools.linux_11.1.0.201909161352/tools/bin/../lib/gcc/arm-none-eabi/8.3.1/../../../../arm-none-eabi/lib/thumb/v7e-m+dp/hard/libcr_c.a(fclose.o)
 .data          0x0000000000000000        0x0 /usr/local/mcuxpressoide-11.1.0_3209/ide/plugins/com.nxp.mcuxpresso.tools.linux_11.1.0.201909161352/tools/bin/../lib/gcc/arm-none-eabi/8.3.1/../../../../arm-none-eabi/lib/thumb/v7e-m+dp/hard/libcr_c.a(fclose.o)
 .bss           0x0000000000000000        0x0 /usr/local/mcuxpressoide-11.1.0_3209/ide/plugins/com.nxp.mcuxpresso.tools.linux_11.1.0.201909161352/tools/bin/../lib/gcc/arm-none-eabi/8.3.1/../../../../arm-none-eabi/lib/thumb/v7e-m+dp/hard/libcr_c.a(fclose.o)
 .text          0x0000000000000000        0x0 /usr/local/mcuxpressoide-11.1.0_3209/ide/plugins/com.nxp.mcuxpresso.tools.linux_11.1.0.201909161352/tools/bin/../lib/gcc/arm-none-eabi/8.3.1/../../../../arm-none-eabi/lib/thumb/v7e-m+dp/hard/libcr_c.a(fflush.o)
 .data          0x0000000000000000        0x0 /usr/local/mcuxpressoide-11.1.0_3209/ide/plugins/com.nxp.mcuxpresso.tools.linux_11.1.0.201909161352/tools/bin/../lib/gcc/arm-none-eabi/8.3.1/../../../../arm-none-eabi/lib/thumb/v7e-m+dp/hard/libcr_c.a(fflush.o)
 .bss           0x0000000000000000        0x0 /usr/local/mcuxpressoide-11.1.0_3209/ide/plugins/com.nxp.mcuxpresso.tools.linux_11.1.0.201909161352/tools/bin/../lib/gcc/arm-none-eabi/8.3.1/../../../../arm-none-eabi/lib/thumb/v7e-m+dp/hard/libcr_c.a(fflush.o)
 .text          0x0000000000000000        0x0 /usr/local/mcuxpressoide-11.1.0_3209/ide/plugins/com.nxp.mcuxpresso.tools.linux_11.1.0.201909161352/tools/bin/../lib/gcc/arm-none-eabi/8.3.1/../../../../arm-none-eabi/lib/thumb/v7e-m+dp/hard/libcr_c.a(fseek.o)
 .data          0x0000000000000000        0x0 /usr/local/mcuxpressoide-11.1.0_3209/ide/plugins/com.nxp.mcuxpresso.tools.linux_11.1.0.201909161352/tools/bin/../lib/gcc/arm-none-eabi/8.3.1/../../../../arm-none-eabi/lib/thumb/v7e-m+dp/hard/libcr_c.a(fseek.o)
 .bss           0x0000000000000000        0x0 /usr/local/mcuxpressoide-11.1.0_3209/ide/plugins/com.nxp.mcuxpresso.tools.linux_11.1.0.201909161352/tools/bin/../lib/gcc/arm-none-eabi/8.3.1/../../../../arm-none-eabi/lib/thumb/v7e-m+dp/hard/libcr_c.a(fseek.o)
 .text          0x0000000000000000        0x0 /usr/local/mcuxpressoide-11.1.0_3209/ide/plugins/com.nxp.mcuxpresso.tools.linux_11.1.0.201909161352/tools/bin/../lib/gcc/arm-none-eabi/8.3.1/../../../../arm-none-eabi/lib/thumb/v7e-m+dp/hard/libcr_c.a(ftell.o)
 .data          0x0000000000000000        0x0 /usr/local/mcuxpressoide-11.1.0_3209/ide/plugins/com.nxp.mcuxpresso.tools.linux_11.1.0.201909161352/tools/bin/../lib/gcc/arm-none-eabi/8.3.1/../../../../arm-none-eabi/lib/thumb/v7e-m+dp/hard/libcr_c.a(ftell.o)
 .bss           0x0000000000000000        0x0 /usr/local/mcuxpressoide-11.1.0_3209/ide/plugins/com.nxp.mcuxpresso.tools.linux_11.1.0.201909161352/tools/bin/../lib/gcc/arm-none-eabi/8.3.1/../../../../arm-none-eabi/lib/thumb/v7e-m+dp/hard/libcr_c.a(ftell.o)
 .text          0x0000000000000000        0x0 /usr/local/mcuxpressoide-11.1.0_3209/ide/plugins/com.nxp.mcuxpresso.tools.linux_11.1.0.201909161352/tools/bin/../lib/gcc/arm-none-eabi/8.3.1/../../../../arm-none-eabi/lib/thumb/v7e-m+dp/hard/libcr_c.a(remove.o)
 .data          0x0000000000000000        0x0 /usr/local/mcuxpressoide-11.1.0_3209/ide/plugins/com.nxp.mcuxpresso.tools.linux_11.1.0.201909161352/tools/bin/../lib/gcc/arm-none-eabi/8.3.1/../../../../arm-none-eabi/lib/thumb/v7e-m+dp/hard/libcr_c.a(remove.o)
 .bss           0x0000000000000000        0x0 /usr/local/mcuxpressoide-11.1.0_3209/ide/plugins/com.nxp.mcuxpresso.tools.linux_11.1.0.201909161352/tools/bin/../lib/gcc/arm-none-eabi/8.3.1/../../../../arm-none-eabi/lib/thumb/v7e-m+dp/hard/libcr_c.a(remove.o)
 .text.rename   0x0000000000000000       0x28 /usr/local/mcuxpressoide-11.1.0_3209/ide/plugins/com.nxp.mcuxpresso.tools.linux_11.1.0.201909161352/tools/bin/../lib/gcc/arm-none-eabi/8.3.1/../../../../arm-none-eabi/lib/thumb/v7e-m+dp/hard/libcr_c.a(remove.o)
 .text          0x0000000000000000        0x0 /usr/local/mcuxpressoide-11.1.0_3209/ide/plugins/com.nxp.mcuxpresso.tools.linux_11.1.0.201909161352/tools/bin/../lib/gcc/arm-none-eabi/8.3.1/../../../../arm-none-eabi/lib/thumb/v7e-m+dp/hard/libcr_c.a(_cr_check_heap.o)
 .data          0x0000000000000000        0x0 /usr/local/mcuxpressoide-11.1.0_3209/ide/plugins/com.nxp.mcuxpresso.tools.linux_11.1.0.201909161352/tools/bin/../lib/gcc/arm-none-eabi/8.3.1/../../../../arm-none-eabi/lib/thumb/v7e-m+dp/hard/libcr_c.a(_cr_check_heap.o)
 .bss           0x0000000000000000        0x0 /usr/local/mcuxpressoide-11.1.0_3209/ide/plugins/com.nxp.mcuxpresso.tools.linux_11.1.0.201909161352/tools/bin/../lib/gcc/arm-none-eabi/8.3.1/../../../../arm-none-eabi/lib/thumb/v7e-m+dp/hard/libcr_c.a(_cr_check_heap.o)
 .text          0x0000000000000000        0x0 /usr/local/mcuxpressoide-11.1.0_3209/ide/plugins/com.nxp.mcuxpresso.tools.linux_11.1.0.201909161352/tools/bin/../lib/gcc/arm-none-eabi/8.3.1/../../../../arm-none-eabi/lib/thumb/v7e-m+dp/hard/libcr_c.a(_do_fflush.o)
 .data          0x0000000000000000        0x0 /usr/local/mcuxpressoide-11.1.0_3209/ide/plugins/com.nxp.mcuxpresso.tools.linux_11.1.0.201909161352/tools/bin/../lib/gcc/arm-none-eabi/8.3.1/../../../../arm-none-eabi/lib/thumb/v7e-m+dp/hard/libcr_c.a(_do_fflush.o)
 .bss           0x0000000000000000        0x0 /usr/local/mcuxpressoide-11.1.0_3209/ide/plugins/com.nxp.mcuxpresso.tools.linux_11.1.0.201909161352/tools/bin/../lib/gcc/arm-none-eabi/8.3.1/../../../../arm-none-eabi/lib/thumb/v7e-m+dp/hard/libcr_c.a(_do_fflush.o)
 .text          0x0000000000000000        0x0 /usr/local/mcuxpressoide-11.1.0_3209/ide/plugins/com.nxp.mcuxpresso.tools.linux_11.1.0.201909161352/tools/bin/../lib/gcc/arm-none-eabi/8.3.1/thumb/v7e-m+dp/hard/libcr_eabihelpers.a(division_64.o)
 .data          0x0000000000000000        0x0 /usr/local/mcuxpressoide-11.1.0_3209/ide/plugins/com.nxp.mcuxpresso.tools.linux_11.1.0.201909161352/tools/bin/../lib/gcc/arm-none-eabi/8.3.1/thumb/v7e-m+dp/hard/libcr_eabihelpers.a(division_64.o)
 .bss           0x0000000000000000        0x0 /usr/local/mcuxpressoide-11.1.0_3209/ide/plugins/com.nxp.mcuxpresso.tools.linux_11.1.0.201909161352/tools/bin/../lib/gcc/arm-none-eabi/8.3.1/thumb/v7e-m+dp/hard/libcr_eabihelpers.a(division_64.o)
 .text.__aeabi_division_ldivmod
                0x0000000000000000       0x26 /usr/local/mcuxpressoide-11.1.0_3209/ide/plugins/com.nxp.mcuxpresso.tools.linux_11.1.0.201909161352/tools/bin/../lib/gcc/arm-none-eabi/8.3.1/thumb/v7e-m+dp/hard/libcr_eabihelpers.a(division_64.o)
 .text          0x0000000000000000        0x0 /usr/local/mcuxpressoide-11.1.0_3209/ide/plugins/com.nxp.mcuxpresso.tools.linux_11.1.0.201909161352/tools/bin/../lib/gcc/arm-none-eabi/8.3.1/thumb/v7e-m+dp/hard/libcr_eabihelpers.a(division_idiv0.o)
 .data          0x0000000000000000        0x0 /usr/local/mcuxpressoide-11.1.0_3209/ide/plugins/com.nxp.mcuxpresso.tools.linux_11.1.0.201909161352/tools/bin/../lib/gcc/arm-none-eabi/8.3.1/thumb/v7e-m+dp/hard/libcr_eabihelpers.a(division_idiv0.o)
 .bss           0x0000000000000000        0x0 /usr/local/mcuxpressoide-11.1.0_3209/ide/plugins/com.nxp.mcuxpresso.tools.linux_11.1.0.201909161352/tools/bin/../lib/gcc/arm-none-eabi/8.3.1/thumb/v7e-m+dp/hard/libcr_eabihelpers.a(division_idiv0.o)
 .text          0x0000000000000000        0x0 /usr/local/mcuxpressoide-11.1.0_3209/ide/plugins/com.nxp.mcuxpresso.tools.linux_11.1.0.201909161352/tools/bin/../lib/gcc/arm-none-eabi/8.3.1/thumb/v7e-m+dp/hard/libcr_eabihelpers.a(memcpy.o)
 .data          0x0000000000000000        0x0 /usr/local/mcuxpressoide-11.1.0_3209/ide/plugins/com.nxp.mcuxpresso.tools.linux_11.1.0.201909161352/tools/bin/../lib/gcc/arm-none-eabi/8.3.1/thumb/v7e-m+dp/hard/libcr_eabihelpers.a(memcpy.o)
 .bss           0x0000000000000000        0x0 /usr/local/mcuxpressoide-11.1.0_3209/ide/plugins/com.nxp.mcuxpresso.tools.linux_11.1.0.201909161352/tools/bin/../lib/gcc/arm-none-eabi/8.3.1/thumb/v7e-m+dp/hard/libcr_eabihelpers.a(memcpy.o)
 .text.__aeabi_memcpy
                0x0000000000000000       0x34 /usr/local/mcuxpressoide-11.1.0_3209/ide/plugins/com.nxp.mcuxpresso.tools.linux_11.1.0.201909161352/tools/bin/../lib/gcc/arm-none-eabi/8.3.1/thumb/v7e-m+dp/hard/libcr_eabihelpers.a(memcpy.o)
 .text.__aeabi_memmove
                0x0000000000000000       0x1c /usr/local/mcuxpressoide-11.1.0_3209/ide/plugins/com.nxp.mcuxpresso.tools.linux_11.1.0.201909161352/tools/bin/../lib/gcc/arm-none-eabi/8.3.1/thumb/v7e-m+dp/hard/libcr_eabihelpers.a(memcpy.o)
 .text.__aeabi_memclr
                0x0000000000000000        0x8 /usr/local/mcuxpressoide-11.1.0_3209/ide/plugins/com.nxp.mcuxpresso.tools.linux_11.1.0.201909161352/tools/bin/../lib/gcc/arm-none-eabi/8.3.1/thumb/v7e-m+dp/hard/libcr_eabihelpers.a(memcpy.o)
 .text.__aeabi_memset
                0x0000000000000000        0xa /usr/local/mcuxpressoide-11.1.0_3209/ide/plugins/com.nxp.mcuxpresso.tools.linux_11.1.0.201909161352/tools/bin/../lib/gcc/arm-none-eabi/8.3.1/thumb/v7e-m+dp/hard/libcr_eabihelpers.a(memcpy.o)
 .text          0x0000000000000000        0x0 /usr/local/mcuxpressoide-11.1.0_3209/ide/plugins/com.nxp.mcuxpresso.tools.linux_11.1.0.201909161352/tools/bin/../lib/gcc/arm-none-eabi/8.3.1/../../../../arm-none-eabi/lib/thumb/v7e-m+dp/hard/libcr_semihost_nf.a(__ciob.o)
 .data          0x0000000000000000        0x0 /usr/local/mcuxpressoide-11.1.0_3209/ide/plugins/com.nxp.mcuxpresso.tools.linux_11.1.0.201909161352/tools/bin/../lib/gcc/arm-none-eabi/8.3.1/../../../../arm-none-eabi/lib/thumb/v7e-m+dp/hard/libcr_semihost_nf.a(__ciob.o)
 .bss           0x0000000000000000        0x0 /usr/local/mcuxpressoide-11.1.0_3209/ide/plugins/com.nxp.mcuxpresso.tools.linux_11.1.0.201909161352/tools/bin/../lib/gcc/arm-none-eabi/8.3.1/../../../../arm-none-eabi/lib/thumb/v7e-m+dp/hard/libcr_semihost_nf.a(__ciob.o)
 .text          0x0000000000000000        0x0 /usr/local/mcuxpressoide-11.1.0_3209/ide/plugins/com.nxp.mcuxpresso.tools.linux_11.1.0.201909161352/tools/bin/../lib/gcc/arm-none-eabi/8.3.1/../../../../arm-none-eabi/lib/thumb/v7e-m+dp/hard/libcr_semihost_nf.a(__sys_appexit.o)
 .data          0x0000000000000000        0x0 /usr/local/mcuxpressoide-11.1.0_3209/ide/plugins/com.nxp.mcuxpresso.tools.linux_11.1.0.201909161352/tools/bin/../lib/gcc/arm-none-eabi/8.3.1/../../../../arm-none-eabi/lib/thumb/v7e-m+dp/hard/libcr_semihost_nf.a(__sys_appexit.o)
 .bss           0x0000000000000000        0x0 /usr/local/mcuxpressoide-11.1.0_3209/ide/plugins/com.nxp.mcuxpresso.tools.linux_11.1.0.201909161352/tools/bin/../lib/gcc/arm-none-eabi/8.3.1/../../../../arm-none-eabi/lib/thumb/v7e-m+dp/hard/libcr_semihost_nf.a(__sys_appexit.o)
 .text          0x0000000000000000        0x0 /usr/local/mcuxpressoide-11.1.0_3209/ide/plugins/com.nxp.mcuxpresso.tools.linux_11.1.0.201909161352/tools/bin/../lib/gcc/arm-none-eabi/8.3.1/../../../../arm-none-eabi/lib/thumb/v7e-m+dp/hard/libcr_semihost_nf.a(__sys_close.o)
 .data          0x0000000000000000        0x0 /usr/local/mcuxpressoide-11.1.0_3209/ide/plugins/com.nxp.mcuxpresso.tools.linux_11.1.0.201909161352/tools/bin/../lib/gcc/arm-none-eabi/8.3.1/../../../../arm-none-eabi/lib/thumb/v7e-m+dp/hard/libcr_semihost_nf.a(__sys_close.o)
 .bss           0x0000000000000000        0x0 /usr/local/mcuxpressoide-11.1.0_3209/ide/plugins/com.nxp.mcuxpresso.tools.linux_11.1.0.201909161352/tools/bin/../lib/gcc/arm-none-eabi/8.3.1/../../../../arm-none-eabi/lib/thumb/v7e-m+dp/hard/libcr_semihost_nf.a(__sys_close.o)
 .text          0x0000000000000000        0x0 /usr/local/mcuxpressoide-11.1.0_3209/ide/plugins/com.nxp.mcuxpresso.tools.linux_11.1.0.201909161352/tools/bin/../lib/gcc/arm-none-eabi/8.3.1/../../../../arm-none-eabi/lib/thumb/v7e-m+dp/hard/libcr_semihost_nf.a(__sys_flen.o)
 .data          0x0000000000000000        0x0 /usr/local/mcuxpressoide-11.1.0_3209/ide/plugins/com.nxp.mcuxpresso.tools.linux_11.1.0.201909161352/tools/bin/../lib/gcc/arm-none-eabi/8.3.1/../../../../arm-none-eabi/lib/thumb/v7e-m+dp/hard/libcr_semihost_nf.a(__sys_flen.o)
 .bss           0x0000000000000000        0x0 /usr/local/mcuxpressoide-11.1.0_3209/ide/plugins/com.nxp.mcuxpresso.tools.linux_11.1.0.201909161352/tools/bin/../lib/gcc/arm-none-eabi/8.3.1/../../../../arm-none-eabi/lib/thumb/v7e-m+dp/hard/libcr_semihost_nf.a(__sys_flen.o)
 .text          0x0000000000000000        0x0 /usr/local/mcuxpressoide-11.1.0_3209/ide/plugins/com.nxp.mcuxpresso.tools.linux_11.1.0.201909161352/tools/bin/../lib/gcc/arm-none-eabi/8.3.1/../../../../arm-none-eabi/lib/thumb/v7e-m+dp/hard/libcr_semihost_nf.a(__sys_istty.o)
 .data          0x0000000000000000        0x0 /usr/local/mcuxpressoide-11.1.0_3209/ide/plugins/com.nxp.mcuxpresso.tools.linux_11.1.0.201909161352/tools/bin/../lib/gcc/arm-none-eabi/8.3.1/../../../../arm-none-eabi/lib/thumb/v7e-m+dp/hard/libcr_semihost_nf.a(__sys_istty.o)
 .bss           0x0000000000000000        0x0 /usr/local/mcuxpressoide-11.1.0_3209/ide/plugins/com.nxp.mcuxpresso.tools.linux_11.1.0.201909161352/tools/bin/../lib/gcc/arm-none-eabi/8.3.1/../../../../arm-none-eabi/lib/thumb/v7e-m+dp/hard/libcr_semihost_nf.a(__sys_istty.o)
 .text          0x0000000000000000        0x0 /usr/local/mcuxpressoide-11.1.0_3209/ide/plugins/com.nxp.mcuxpresso.tools.linux_11.1.0.201909161352/tools/bin/../lib/gcc/arm-none-eabi/8.3.1/../../../../arm-none-eabi/lib/thumb/v7e-m+dp/hard/libcr_semihost_nf.a(__sys_remove.o)
 .data          0x0000000000000000        0x0 /usr/local/mcuxpressoide-11.1.0_3209/ide/plugins/com.nxp.mcuxpresso.tools.linux_11.1.0.201909161352/tools/bin/../lib/gcc/arm-none-eabi/8.3.1/../../../../arm-none-eabi/lib/thumb/v7e-m+dp/hard/libcr_semihost_nf.a(__sys_remove.o)
 .bss           0x0000000000000000        0x0 /usr/local/mcuxpressoide-11.1.0_3209/ide/plugins/com.nxp.mcuxpresso.tools.linux_11.1.0.201909161352/tools/bin/../lib/gcc/arm-none-eabi/8.3.1/../../../../arm-none-eabi/lib/thumb/v7e-m+dp/hard/libcr_semihost_nf.a(__sys_remove.o)
 .text          0x0000000000000000        0x0 /usr/local/mcuxpressoide-11.1.0_3209/ide/plugins/com.nxp.mcuxpresso.tools.linux_11.1.0.201909161352/tools/bin/../lib/gcc/arm-none-eabi/8.3.1/../../../../arm-none-eabi/lib/thumb/v7e-m+dp/hard/libcr_semihost_nf.a(__sys_rename.o)
 .data          0x0000000000000000        0x0 /usr/local/mcuxpressoide-11.1.0_3209/ide/plugins/com.nxp.mcuxpresso.tools.linux_11.1.0.201909161352/tools/bin/../lib/gcc/arm-none-eabi/8.3.1/../../../../arm-none-eabi/lib/thumb/v7e-m+dp/hard/libcr_semihost_nf.a(__sys_rename.o)
 .bss           0x0000000000000000        0x0 /usr/local/mcuxpressoide-11.1.0_3209/ide/plugins/com.nxp.mcuxpresso.tools.linux_11.1.0.201909161352/tools/bin/../lib/gcc/arm-none-eabi/8.3.1/../../../../arm-none-eabi/lib/thumb/v7e-m+dp/hard/libcr_semihost_nf.a(__sys_rename.o)
 .text.__sys_rename
                0x0000000000000000        0xc /usr/local/mcuxpressoide-11.1.0_3209/ide/plugins/com.nxp.mcuxpresso.tools.linux_11.1.0.201909161352/tools/bin/../lib/gcc/arm-none-eabi/8.3.1/../../../../arm-none-eabi/lib/thumb/v7e-m+dp/hard/libcr_semihost_nf.a(__sys_rename.o)
 .ARM.attributes
                0x0000000000000000       0x1e /usr/local/mcuxpressoide-11.1.0_3209/ide/plugins/com.nxp.mcuxpresso.tools.linux_11.1.0.201909161352/tools/bin/../lib/gcc/arm-none-eabi/8.3.1/../../../../arm-none-eabi/lib/thumb/v7e-m+dp/hard/libcr_semihost_nf.a(__sys_rename.o)
 .text          0x0000000000000000        0x0 /usr/local/mcuxpressoide-11.1.0_3209/ide/plugins/com.nxp.mcuxpresso.tools.linux_11.1.0.201909161352/tools/bin/../lib/gcc/arm-none-eabi/8.3.1/../../../../arm-none-eabi/lib/thumb/v7e-m+dp/hard/libcr_semihost_nf.a(__sys_seek.o)
 .data          0x0000000000000000        0x0 /usr/local/mcuxpressoide-11.1.0_3209/ide/plugins/com.nxp.mcuxpresso.tools.linux_11.1.0.201909161352/tools/bin/../lib/gcc/arm-none-eabi/8.3.1/../../../../arm-none-eabi/lib/thumb/v7e-m+dp/hard/libcr_semihost_nf.a(__sys_seek.o)
 .bss           0x0000000000000000        0x0 /usr/local/mcuxpressoide-11.1.0_3209/ide/plugins/com.nxp.mcuxpresso.tools.linux_11.1.0.201909161352/tools/bin/../lib/gcc/arm-none-eabi/8.3.1/../../../../arm-none-eabi/lib/thumb/v7e-m+dp/hard/libcr_semihost_nf.a(__sys_seek.o)
 .text          0x0000000000000000        0x0 /usr/local/mcuxpressoide-11.1.0_3209/ide/plugins/com.nxp.mcuxpresso.tools.linux_11.1.0.201909161352/tools/bin/../lib/gcc/arm-none-eabi/8.3.1/../../../../arm-none-eabi/lib/thumb/v7e-m+dp/hard/libcr_semihost_nf.a(__sys_tmpnam.o)
 .data          0x0000000000000000        0x0 /usr/local/mcuxpressoide-11.1.0_3209/ide/plugins/com.nxp.mcuxpresso.tools.linux_11.1.0.201909161352/tools/bin/../lib/gcc/arm-none-eabi/8.3.1/../../../../arm-none-eabi/lib/thumb/v7e-m+dp/hard/libcr_semihost_nf.a(__sys_tmpnam.o)
 .bss           0x0000000000000000        0x0 /usr/local/mcuxpressoide-11.1.0_3209/ide/plugins/com.nxp.mcuxpresso.tools.linux_11.1.0.201909161352/tools/bin/../lib/gcc/arm-none-eabi/8.3.1/../../../../arm-none-eabi/lib/thumb/v7e-m+dp/hard/libcr_semihost_nf.a(__sys_tmpnam.o)
 .text          0x0000000000000000        0x0 /usr/local/mcuxpressoide-11.1.0_3209/ide/plugins/com.nxp.mcuxpresso.tools.linux_11.1.0.201909161352/tools/bin/../lib/gcc/arm-none-eabi/8.3.1/../../../../arm-none-eabi/lib/thumb/v7e-m+dp/hard/libcr_semihost_nf.a(__sys_write.o)
 .data          0x0000000000000000        0x0 /usr/local/mcuxpressoide-11.1.0_3209/ide/plugins/com.nxp.mcuxpresso.tools.linux_11.1.0.201909161352/tools/bin/../lib/gcc/arm-none-eabi/8.3.1/../../../../arm-none-eabi/lib/thumb/v7e-m+dp/hard/libcr_semihost_nf.a(__sys_write.o)
 .bss           0x0000000000000000        0x0 /usr/local/mcuxpressoide-11.1.0_3209/ide/plugins/com.nxp.mcuxpresso.tools.linux_11.1.0.201909161352/tools/bin/../lib/gcc/arm-none-eabi/8.3.1/../../../../arm-none-eabi/lib/thumb/v7e-m+dp/hard/libcr_semihost_nf.a(__sys_write.o)

Memory Configuration

Name             Origin             Length             Attributes
BOARD_FLASH      0x0000000060000000 0x0000000000800000 xr
SRAM_DTC         0x0000000020000000 0x0000000000010000 xrw
SRAM_ITC         0x0000000000000000 0x0000000000010000 xrw
SRAM_OC          0x0000000020200000 0x0000000000020000 xrw
BOARD_SDRAM      0x0000000080000000 0x0000000001e00000 xrw
NCACHE_REGION    0x0000000081e00000 0x0000000000200000 xrw
*default*        0x0000000000000000 0xffffffffffffffff

Linker script and memory map

LOAD ./xip/evkmimxrt1020_flexspi_nor_config.o
LOAD ./xip/evkmimxrt1020_sdram_ini_dcd.o
LOAD ./xip/fsl_flexspi_nor_boot.o
LOAD ./utilities/fsl_assert.o
LOAD ./utilities/fsl_debug_console.o
LOAD ./utilities/fsl_str.o
LOAD ./startup/startup_mimxrt1021.o
LOAD ./source/qtmr_inputcapture_outputpwm.o
LOAD ./source/semihost_hardfault.o
LOAD ./drivers/fsl_clock.o
LOAD ./drivers/fsl_common.o
LOAD ./drivers/fsl_gpio.o
LOAD ./drivers/fsl_lpspi.o
LOAD ./drivers/fsl_lpuart.o
LOAD ./drivers/fsl_qtmr.o
LOAD ./drivers/fsl_xbara.o
LOAD ./device/system_MIMXRT1021.o
LOAD ./component/uart/lpuart_adapter.o
LOAD ./component/serial_manager/serial_manager.o
LOAD ./component/serial_manager/serial_port_uart.o
LOAD ./component/lists/generic_list.o
LOAD ./board/board.o
LOAD ./board/clock_config.o
LOAD ./board/pin_mux.o
START GROUP
LOAD /usr/local/mcuxpressoide-11.1.0_3209/ide/plugins/com.nxp.mcuxpresso.tools.linux_11.1.0.201909161352/tools/bin/../lib/gcc/arm-none-eabi/8.3.1/../../../../arm-none-eabi/lib/thumb/v7e-m+dp/hard/libcr_semihost_nf.a
LOAD /usr/local/mcuxpressoide-11.1.0_3209/ide/plugins/com.nxp.mcuxpresso.tools.linux_11.1.0.201909161352/tools/bin/../lib/gcc/arm-none-eabi/8.3.1/../../../../arm-none-eabi/lib/thumb/v7e-m+dp/hard/libcr_c.a
LOAD /usr/local/mcuxpressoide-11.1.0_3209/ide/plugins/com.nxp.mcuxpresso.tools.linux_11.1.0.201909161352/tools/bin/../lib/gcc/arm-none-eabi/8.3.1/thumb/v7e-m+dp/hard/libcr_eabihelpers.a
LOAD /usr/local/mcuxpressoide-11.1.0_3209/ide/plugins/com.nxp.mcuxpresso.tools.linux_11.1.0.201909161352/tools/bin/../lib/gcc/arm-none-eabi/8.3.1/thumb/v7e-m+dp/hard/libgcc.a
END GROUP
                0x0000000060000000                __base_BOARD_FLASH = 0x60000000
                0x0000000060000000                __base_Flash = 0x60000000
                0x0000000060800000                __top_BOARD_FLASH = 0x60800000
                0x0000000060800000                __top_Flash = 0x60800000
                0x0000000020000000                __base_SRAM_DTC = 0x20000000
                0x0000000020000000                __base_RAM = 0x20000000
                0x0000000020010000                __top_SRAM_DTC = 0x20010000
                0x0000000020010000                __top_RAM = 0x20010000
                0x0000000000000000                __base_SRAM_ITC = 0x0
                0x0000000000000000                __base_RAM2 = 0x0
                0x0000000000010000                __top_SRAM_ITC = 0x10000
                0x0000000000010000                __top_RAM2 = 0x10000
                0x0000000020200000                __base_SRAM_OC = 0x20200000
                0x0000000020200000                __base_RAM3 = 0x20200000
                0x0000000020220000                __top_SRAM_OC = 0x20220000
                0x0000000020220000                __top_RAM3 = 0x20220000
                0x0000000080000000                __base_BOARD_SDRAM = 0x80000000
                0x0000000080000000                __base_RAM4 = 0x80000000
                0x0000000081e00000                __top_BOARD_SDRAM = 0x81e00000
                0x0000000081e00000                __top_RAM4 = 0x81e00000
                0x0000000081e00000                __base_NCACHE_REGION = 0x81e00000
                0x0000000081e00000                __base_RAM5 = 0x81e00000
                0x0000000082000000                __top_NCACHE_REGION = 0x82000000
                0x0000000082000000                __top_RAM5 = 0x82000000

.boot_hdr       0x0000000060000000     0x2000
 FILL mask 0xff
                0x0000000060000000                __boot_hdr_start__ = ABSOLUTE (.)
 *(SORT_BY_ALIGNMENT(.boot_hdr.conf))
 .boot_hdr.conf
                0x0000000060000000      0x200 ./xip/evkmimxrt1020_flexspi_nor_config.o
                0x0000000060000000                qspiflash_config
                0x0000000000001000                . = 0x1000
 *fill*         0x0000000060000200      0xe00 ff
 *(SORT_BY_ALIGNMENT(.boot_hdr.ivt))
 .boot_hdr.ivt  0x0000000060001000       0x20 ./xip/fsl_flexspi_nor_boot.o
                0x0000000060001000                image_vector_table
                0x0000000000001020                . = 0x1020
 *(SORT_BY_ALIGNMENT(.boot_hdr.boot_data))
 .boot_hdr.boot_data
                0x0000000060001020       0x10 ./xip/fsl_flexspi_nor_boot.o
                0x0000000060001020                boot_data
                0x0000000000001030                . = 0x1030
 *(SORT_BY_ALIGNMENT(.boot_hdr.dcd_data))
                0x0000000060001030                __boot_hdr_end__ = ABSOLUTE (.)
                0x0000000000002000                . = 0x2000
 *fill*         0x0000000060001030      0xfd0 ff

.text           0x0000000060002000     0x52a8
 FILL mask 0xff
                0x0000000060002000                __vectors_start__ = ABSOLUTE (.)
 *(SORT_BY_ALIGNMENT(.isr_vector))
 .isr_vector    0x0000000060002000      0x278 ./startup/startup_mimxrt1021.o
                0x0000000060002000                __Vectors
                0x0000000060002000                g_pfnVectors
                0x0000000060002278                . = ALIGN (0x4)
                0x0000000060002278                __section_table_start = .
                0x0000000060002278                __data_section_table = .
                0x0000000060002278        0x4 LONG 0x600072a8 LOADADDR (.data)
                0x000000006000227c        0x4 LONG 0x20000000 ADDR (.data)
                0x0000000060002280        0x4 LONG 0x4 SIZEOF (.data)
                0x0000000060002284        0x4 LONG 0x600072a8 LOADADDR (.data_RAM2)
                0x0000000060002288        0x4 LONG 0x0 ADDR (.data_RAM2)
                0x000000006000228c        0x4 LONG 0x0 SIZEOF (.data_RAM2)
                0x0000000060002290        0x4 LONG 0x600072a8 LOADADDR (.data_RAM3)
                0x0000000060002294        0x4 LONG 0x20200000 ADDR (.data_RAM3)
                0x0000000060002298        0x4 LONG 0x0 SIZEOF (.data_RAM3)
                0x000000006000229c        0x4 LONG 0x600072a8 LOADADDR (.data_RAM4)
                0x00000000600022a0        0x4 LONG 0x80000000 ADDR (.data_RAM4)
                0x00000000600022a4        0x4 LONG 0x0 SIZEOF (.data_RAM4)
                0x00000000600022a8        0x4 LONG 0x600072a8 LOADADDR (.data_RAM5)
                0x00000000600022ac        0x4 LONG 0x81e00000 ADDR (.data_RAM5)
                0x00000000600022b0        0x4 LONG 0x0 SIZEOF (.data_RAM5)
                0x00000000600022b4                __data_section_table_end = .
                0x00000000600022b4                __bss_section_table = .
                0x00000000600022b4        0x4 LONG 0x20000004 ADDR (.bss)
                0x00000000600022b8        0x4 LONG 0x118 SIZEOF (.bss)
                0x00000000600022bc        0x4 LONG 0x0 ADDR (.bss_RAM2)
                0x00000000600022c0        0x4 LONG 0x0 SIZEOF (.bss_RAM2)
                0x00000000600022c4        0x4 LONG 0x20200000 ADDR (.bss_RAM3)
                0x00000000600022c8        0x4 LONG 0x0 SIZEOF (.bss_RAM3)
                0x00000000600022cc        0x4 LONG 0x80000000 ADDR (.bss_RAM4)
                0x00000000600022d0        0x4 LONG 0x0 SIZEOF (.bss_RAM4)
                0x00000000600022d4        0x4 LONG 0x81e00000 ADDR (.bss_RAM5)
                0x00000000600022d8        0x4 LONG 0x0 SIZEOF (.bss_RAM5)
                0x00000000600022dc                __bss_section_table_end = .
                0x00000000600022dc                __section_table_end = .
 *(SORT_BY_ALIGNMENT(.after_vectors*))
 .after_vectors.reset
                0x00000000600022dc       0x4c ./startup/startup_mimxrt1021.o
                0x00000000600022dc                ResetISR
 .after_vectors.init_data
                0x0000000060002328       0x1e ./startup/startup_mimxrt1021.o
                0x0000000060002328                data_init
 .after_vectors.init_bss
                0x0000000060002346       0x12 ./startup/startup_mimxrt1021.o
                0x0000000060002346                bss_init
 .after_vectors
                0x0000000060002358        0xc ./startup/startup_mimxrt1021.o
                0x0000000060002358                NMI_Handler
                0x000000006000235c                SVC_Handler
                0x000000006000235e                PendSV_Handler
                0x0000000060002360                SysTick_Handler
                0x0000000060002362                ACMP4_DriverIRQHandler
                0x0000000060002362                Reserved87_DriverIRQHandler
                0x0000000060002362                KPP_DriverIRQHandler
                0x0000000060002362                SAI3_RX_DriverIRQHandler
                0x0000000060002362                CCM_2_DriverIRQHandler
                0x0000000060002362                PIT_DriverIRQHandler
                0x0000000060002362                Reserved102_DriverIRQHandler
                0x0000000060002362                Reserved152_DriverIRQHandler
                0x0000000060002362                DMA13_DMA29_DriverIRQHandler
                0x0000000060002362                FLEXRAM_DriverIRQHandler
                0x0000000060002362                SEMC_DriverIRQHandler
                0x0000000060002362                SPDIF_DriverIRQHandler
                0x0000000060002362                USB_PHY_DriverIRQHandler
                0x0000000060002362                GPIO3_Combined_0_15_DriverIRQHandler
                0x0000000060002362                Reserved82_DriverIRQHandler
                0x0000000060002362                DMA7_DMA23_DriverIRQHandler
                0x0000000060002362                BEE_DriverIRQHandler
                0x0000000060002362                LPI2C3_DriverIRQHandler
                0x0000000060002362                GPR_IRQ_DriverIRQHandler
                0x0000000060002362                Reserved103_DriverIRQHandler
                0x0000000060002362                PWM2_FAULT_DriverIRQHandler
                0x0000000060002362                Reserved56_DriverIRQHandler
                0x0000000060002362                DMA14_DMA30_DriverIRQHandler
                0x0000000060002362                TMR1_DriverIRQHandler
                0x0000000060002362                TRNG_DriverIRQHandler
                0x0000000060002362                ENET_1588_Timer_DriverIRQHandler
                0x0000000060002362                GPIO2_Combined_16_31_DriverIRQHandler
                0x0000000060002362                Reserved143_DriverIRQHandler
                0x0000000060002362                Reserved151_DriverIRQHandler
                0x0000000060002362                DMA0_DMA16_DriverIRQHandler
                0x0000000060002362                IntDefaultHandler
                0x0000000060002362                DMA2_DMA18_DriverIRQHandler
                0x0000000060002362                SRC_DriverIRQHandler
                0x0000000060002362                GPIO1_INT4_DriverIRQHandler
                0x0000000060002362                Reserved144_DriverIRQHandler
                0x0000000060002362                USDHC1_DriverIRQHandler
                0x0000000060002362                EWM_DriverIRQHandler
                0x0000000060002362                WDOG1_DriverIRQHandler
                0x0000000060002362                FLEXIO1_DriverIRQHandler
                0x0000000060002362                ENET_DriverIRQHandler
                0x0000000060002362                Reserved78_DriverIRQHandler
                0x0000000060002362                ENC2_DriverIRQHandler
                0x0000000060002362                ADC_ETC_IRQ2_DriverIRQHandler
                0x0000000060002362                GPIO1_Combined_16_31_DriverIRQHandler
                0x0000000060002362                GPIO1_INT7_DriverIRQHandler
                0x0000000060002362                SAI1_DriverIRQHandler
                0x0000000060002362                DCDC_DriverIRQHandler
                0x0000000060002362                DMA12_DMA28_DriverIRQHandler
                0x0000000060002362                ADC_ETC_ERROR_IRQ_DriverIRQHandler
                0x0000000060002362                ACMP2_DriverIRQHandler
                0x0000000060002362                GPIO5_Combined_0_15_DriverIRQHandler
                0x0000000060002362                GPIO1_INT0_DriverIRQHandler
                0x0000000060002362                GPIO1_INT2_DriverIRQHandler
                0x0000000060002362                RTWDOG_DriverIRQHandler
                0x0000000060002362                FLEXSPI_DriverIRQHandler
                0x0000000060002362                GPT2_DriverIRQHandler
                0x0000000060002362                DMA10_DMA26_DriverIRQHandler
                0x0000000060002362                PWM2_1_DriverIRQHandler
                0x0000000060002362                PWM1_1_DriverIRQHandler
                0x0000000060002362                ADC1_DriverIRQHandler
                0x0000000060002362                Reserved148_DriverIRQHandler
                0x0000000060002362                PWM1_0_DriverIRQHandler
                0x0000000060002362                DMA1_DMA17_DriverIRQHandler
                0x0000000060002362                ENC1_DriverIRQHandler
                0x0000000060002362                CAN2_DriverIRQHandler
                0x0000000060002362                DCP_DriverIRQHandler
                0x0000000060002362                CTI0_ERROR_DriverIRQHandler
                0x0000000060002362                DMA8_DMA24_DriverIRQHandler
                0x0000000060002362                GPT1_DriverIRQHandler
                0x0000000060002362                ACMP3_DriverIRQHandler
                0x0000000060002362                DMA6_DMA22_DriverIRQHandler
                0x0000000060002362                CSU_DriverIRQHandler
                0x0000000060002362                GPIO1_INT5_DriverIRQHandler
                0x0000000060002362                TMR2_DriverIRQHandler
                0x0000000060002362                CTI1_ERROR_DriverIRQHandler
                0x0000000060002362                GPIO1_Combined_0_15_DriverIRQHandler
                0x0000000060002362                USDHC2_DriverIRQHandler
                0x0000000060002362                SAI2_DriverIRQHandler
                0x0000000060002362                CORE_DriverIRQHandler
                0x0000000060002362                Reserved147_DriverIRQHandler
                0x0000000060002362                DMA11_DMA27_DriverIRQHandler
                0x0000000060002362                PWM2_3_DriverIRQHandler
                0x0000000060002362                Reserved60_DriverIRQHandler
                0x0000000060002362                XBAR1_IRQ_2_3_DriverIRQHandler
                0x0000000060002362                SNVS_HP_WRAPPER_TZ_DriverIRQHandler
                0x0000000060002362                GPIO3_Combined_16_31_DriverIRQHandler
                0x0000000060002362                PWM1_FAULT_DriverIRQHandler
                0x0000000060002362                LPI2C1_DriverIRQHandler
                0x0000000060002362                PWM2_2_DriverIRQHandler
                0x0000000060002362                Reserved128_DriverIRQHandler
                0x0000000060002362                DMA4_DMA20_DriverIRQHandler
                0x0000000060002362                DMA9_DMA25_DriverIRQHandler
                0x0000000060002362                SNVS_HP_WRAPPER_DriverIRQHandler
                0x0000000060002362                XBAR1_IRQ_0_1_DriverIRQHandler
                0x0000000060002362                ADC_ETC_IRQ1_DriverIRQHandler
                0x0000000060002362                DMA3_DMA19_DriverIRQHandler
                0x0000000060002362                GPIO1_INT3_DriverIRQHandler
                0x0000000060002362                DCP_VMI_DriverIRQHandler
                0x0000000060002362                LPI2C4_DriverIRQHandler
                0x0000000060002362                GPC_DriverIRQHandler
                0x0000000060002362                Reserved123_DriverIRQHandler
                0x0000000060002362                GPIO2_Combined_0_15_DriverIRQHandler
                0x0000000060002362                PWM1_2_DriverIRQHandler
                0x0000000060002362                USB_OTG1_DriverIRQHandler
                0x0000000060002362                TEMP_LOW_HIGH_DriverIRQHandler
                0x0000000060002362                SAI3_TX_DriverIRQHandler
                0x0000000060002362                WDOG2_DriverIRQHandler
                0x0000000060002362                Reserved68_DriverIRQHandler
                0x0000000060002362                PMU_DriverIRQHandler
                0x0000000060002362                Reserved59_DriverIRQHandler
                0x0000000060002362                GPIO5_Combined_16_31_DriverIRQHandler
                0x0000000060002362                DMA5_DMA21_DriverIRQHandler
                0x0000000060002362                CCM_1_DriverIRQHandler
                0x0000000060002362                ADC2_DriverIRQHandler
                0x0000000060002362                Reserved58_DriverIRQHandler
                0x0000000060002362                Reserved115_DriverIRQHandler
                0x0000000060002362                TEMP_PANIC_DriverIRQHandler
                0x0000000060002362                DMA15_DMA31_DriverIRQHandler
                0x0000000060002362                Reserved107_DriverIRQHandler
                0x0000000060002362                PWM1_3_DriverIRQHandler
                0x0000000060002362                Reserved70_DriverIRQHandler
                0x0000000060002362                ACMP1_DriverIRQHandler
                0x0000000060002362                LPI2C2_DriverIRQHandler
                0x0000000060002362                Reserved86_DriverIRQHandler
                0x0000000060002362                DMA_ERROR_DriverIRQHandler
                0x0000000060002362                ADC_ETC_IRQ0_DriverIRQHandler
                0x0000000060002362                CAN1_DriverIRQHandler
                0x0000000060002362                GPIO1_INT6_DriverIRQHandler
                0x0000000060002362                GPIO1_INT1_DriverIRQHandler
                0x0000000060002362                PWM2_0_DriverIRQHandler
                0x0000000060002362                SNVS_LP_WRAPPER_DriverIRQHandler
 *(SORT_BY_ALIGNMENT(.text*))
 *fill*         0x0000000060002364        0x4 ff
 .text.LPSPI_MasterSetDelayTimes
                0x0000000060002368      0x170 ./drivers/fsl_lpspi.o
                0x0000000060002368                LPSPI_MasterSetDelayTimes
 .text.__assertion_failed
                0x00000000600024d8       0x18 ./utilities/fsl_assert.o
                0x00000000600024d8                __assertion_failed
 .text.__NVIC_EnableIRQ
                0x00000000600024f0       0x3c ./source/qtmr_inputcapture_outputpwm.o
 .text.TMR2_IRQHandler
                0x000000006000252c       0x24 ./source/qtmr_inputcapture_outputpwm.o
                0x000000006000252c                TMR2_IRQHandler
 .text.XBAR1_IRQ_0_1_IRQHandler
                0x0000000060002550       0x30 ./source/qtmr_inputcapture_outputpwm.o
                0x0000000060002550                XBAR1_IRQ_0_1_IRQHandler
 .text.main     0x0000000060002580      0x1b4 ./source/qtmr_inputcapture_outputpwm.o
                0x0000000060002580                main
 .text.CLOCK_GetOscFreq
                0x0000000060002734       0x30 ./drivers/fsl_clock.o
 .text.CLOCK_GetPeriphClkFreq
                0x0000000060002764       0xd0 ./drivers/fsl_clock.o
 .text.CLOCK_InitExternalClk
                0x0000000060002834       0x6c ./drivers/fsl_clock.o
                0x0000000060002834                CLOCK_InitExternalClk
 .text.CLOCK_SwitchOsc
                0x00000000600028a0       0x34 ./drivers/fsl_clock.o
                0x00000000600028a0                CLOCK_SwitchOsc
 .text.CLOCK_InitRcOsc24M
                0x00000000600028d4       0x24 ./drivers/fsl_clock.o
                0x00000000600028d4                CLOCK_InitRcOsc24M
 .text.CLOCK_GetAhbFreq
                0x00000000600028f8       0x24 ./drivers/fsl_clock.o
                0x00000000600028f8                CLOCK_GetAhbFreq
 .text.CLOCK_GetSemcFreq
                0x000000006000291c       0x5c ./drivers/fsl_clock.o
                0x000000006000291c                CLOCK_GetSemcFreq
 .text.CLOCK_GetIpgFreq
                0x0000000060002978       0x24 ./drivers/fsl_clock.o
                0x0000000060002978                CLOCK_GetIpgFreq
 .text.CLOCK_GetPerClkFreq
                0x000000006000299c       0x40 ./drivers/fsl_clock.o
                0x000000006000299c                CLOCK_GetPerClkFreq
 .text.CLOCK_GetFreq
                0x00000000600029dc      0x150 ./drivers/fsl_clock.o
                0x00000000600029dc                CLOCK_GetFreq
 .text.CLOCK_InitSysPll
                0x0000000060002b2c       0x9c ./drivers/fsl_clock.o
                0x0000000060002b2c                CLOCK_InitSysPll
 .text.CLOCK_DeinitAudioPll
                0x0000000060002bc8       0x1c ./drivers/fsl_clock.o
                0x0000000060002bc8                CLOCK_DeinitAudioPll
 .text.CLOCK_InitEnetPll
                0x0000000060002be4       0xa4 ./drivers/fsl_clock.o
                0x0000000060002be4                CLOCK_InitEnetPll
 .text.CLOCK_GetPllFreq
                0x0000000060002c88      0x250 ./drivers/fsl_clock.o
                0x0000000060002c88                CLOCK_GetPllFreq
 .text.CLOCK_InitSysPfd
                0x0000000060002ed8       0x64 ./drivers/fsl_clock.o
                0x0000000060002ed8                CLOCK_InitSysPfd
 .text.CLOCK_GetSysPfdFreq
                0x0000000060002f3c       0xac ./drivers/fsl_clock.o
                0x0000000060002f3c                CLOCK_GetSysPfdFreq
 .text.CLOCK_GetUsb1PfdFreq
                0x0000000060002fe8       0xac ./drivers/fsl_clock.o
                0x0000000060002fe8                CLOCK_GetUsb1PfdFreq
 .text.CLOCK_ControlGate
                0x0000000060003094       0x64 ./drivers/fsl_lpspi.o
 .text.LPSPI_GetInstance
                0x00000000600030f8       0x50 ./drivers/fsl_lpspi.o
                0x00000000600030f8                LPSPI_GetInstance
 .text.LPSPI_SetDummyData
                0x0000000060003148       0x2c ./drivers/fsl_lpspi.o
                0x0000000060003148                LPSPI_SetDummyData
 .text.LPSPI_MasterInit
                0x0000000060003174      0x11c ./drivers/fsl_lpspi.o
                0x0000000060003174                LPSPI_MasterInit
 .text.LPSPI_MasterSetBaudRate
                0x0000000060003290       0xf8 ./drivers/fsl_lpspi.o
                0x0000000060003290                LPSPI_MasterSetBaudRate
 .text.LPSPI_MasterSetDelayScaler
                0x0000000060003388       0x70 ./drivers/fsl_lpspi.o
                0x0000000060003388                LPSPI_MasterSetDelayScaler
 .text.LPSPI_CommonIRQHandler
                0x00000000600033f8       0x3c ./drivers/fsl_lpspi.o
 .text.LPSPI1_DriverIRQHandler
                0x0000000060003434       0x30 ./drivers/fsl_lpspi.o
                0x0000000060003434                LPSPI1_DriverIRQHandler
 .text.LPSPI2_DriverIRQHandler
                0x0000000060003464       0x30 ./drivers/fsl_lpspi.o
                0x0000000060003464                LPSPI2_DriverIRQHandler
 .text.LPSPI3_DriverIRQHandler
                0x0000000060003494       0x30 ./drivers/fsl_lpspi.o
                0x0000000060003494                LPSPI3_DriverIRQHandler
 .text.LPSPI4_DriverIRQHandler
                0x00000000600034c4       0x30 ./drivers/fsl_lpspi.o
                0x00000000600034c4                LPSPI4_DriverIRQHandler
 .text.LPUART1_DriverIRQHandler
                0x00000000600034f4       0x24 ./drivers/fsl_lpuart.o
                0x00000000600034f4                LPUART1_DriverIRQHandler
 .text.LPUART2_DriverIRQHandler
                0x0000000060003518       0x24 ./drivers/fsl_lpuart.o
                0x0000000060003518                LPUART2_DriverIRQHandler
 .text.LPUART3_DriverIRQHandler
                0x000000006000353c       0x24 ./drivers/fsl_lpuart.o
                0x000000006000353c                LPUART3_DriverIRQHandler
 .text.LPUART4_DriverIRQHandler
                0x0000000060003560       0x24 ./drivers/fsl_lpuart.o
                0x0000000060003560                LPUART4_DriverIRQHandler
 .text.LPUART5_DriverIRQHandler
                0x0000000060003584       0x24 ./drivers/fsl_lpuart.o
                0x0000000060003584                LPUART5_DriverIRQHandler
 .text.LPUART6_DriverIRQHandler
                0x00000000600035a8       0x24 ./drivers/fsl_lpuart.o
                0x00000000600035a8                LPUART6_DriverIRQHandler
 .text.LPUART7_DriverIRQHandler
                0x00000000600035cc       0x24 ./drivers/fsl_lpuart.o
                0x00000000600035cc                LPUART7_DriverIRQHandler
 .text.LPUART8_DriverIRQHandler
                0x00000000600035f0       0x24 ./drivers/fsl_lpuart.o
                0x00000000600035f0                LPUART8_DriverIRQHandler
 .text.CLOCK_ControlGate
                0x0000000060003614       0x64 ./drivers/fsl_qtmr.o
 .text.QTMR_GetInstance
                0x0000000060003678       0x4c ./drivers/fsl_qtmr.o
 .text.QTMR_Init
                0x00000000600036c4      0x108 ./drivers/fsl_qtmr.o
                0x00000000600036c4                QTMR_Init
 .text.QTMR_GetDefaultConfig
                0x00000000600037cc       0x54 ./drivers/fsl_qtmr.o
                0x00000000600037cc                QTMR_GetDefaultConfig
 .text.QTMR_SetupPwm
                0x0000000060003820      0x178 ./drivers/fsl_qtmr.o
                0x0000000060003820                QTMR_SetupPwm
 .text.QTMR_SetupInputCapture
                0x0000000060003998       0xf4 ./drivers/fsl_qtmr.o
                0x0000000060003998                QTMR_SetupInputCapture
 .text.CLOCK_ControlGate
                0x0000000060003a8c       0x64 ./drivers/fsl_xbara.o
 .text.XBARA_GetInstance
                0x0000000060003af0       0x44 ./drivers/fsl_xbara.o
 .text.XBARA_GetStatusFlags
                0x0000000060003b34       0x40 ./drivers/fsl_xbara.o
                0x0000000060003b34                XBARA_GetStatusFlags
 .text.XBARA_SetOutputSignalConfig
                0x0000000060003b74       0x8c ./drivers/fsl_xbara.o
                0x0000000060003b74                XBARA_SetOutputSignalConfig
 .text.SystemInit
                0x0000000060003c00      0x1c8 ./device/system_MIMXRT1021.o
                0x0000000060003c00                SystemInit
 .text.ARM_MPU_Enable
                0x0000000060003dc8       0x3c ./board/board.o
 .text.ARM_MPU_Disable
                0x0000000060003e04       0x34 ./board/board.o
 .text.CLOCK_GetMux
                0x0000000060003e38       0x44 ./board/board.o
 .text.CLOCK_GetDiv
                0x0000000060003e7c       0x44 ./board/board.o
 .text.CLOCK_GetOscFreq
                0x0000000060003ec0       0x30 ./board/board.o
 .text.BOARD_DebugConsoleSrcFreq
                0x0000000060003ef0       0x64 ./board/board.o
                0x0000000060003ef0                BOARD_DebugConsoleSrcFreq
 .text.BOARD_ConfigMPU
                0x0000000060003f54      0x29c ./board/board.o
                0x0000000060003f54                BOARD_ConfigMPU
 .text.CLOCK_SetMux
                0x00000000600041f0       0x9c ./board/clock_config.o
 .text.CLOCK_SetDiv
                0x000000006000428c       0x9c ./board/clock_config.o
 .text.CLOCK_ControlGate
                0x0000000060004328       0x64 ./board/clock_config.o
 .text.CLOCK_SetXtalFreq
                0x000000006000438c       0x20 ./board/clock_config.o
 .text.CLOCK_SetRtcXtalFreq
                0x00000000600043ac       0x20 ./board/clock_config.o
 .text.IOMUXC_EnableMode
                0x00000000600043cc       0x48 ./board/clock_config.o
 .text.IOMUXC_MQSConfig
                0x0000000060004414       0x44 ./board/clock_config.o
 .text.BOARD_BootClockRUN
                0x0000000060004458      0x4ec ./board/clock_config.o
                0x0000000060004458                BOARD_BootClockRUN
 .text.CLOCK_ControlGate
                0x0000000060004944       0x64 ./board/pin_mux.o
 .text.BOARD_InitPins
                0x00000000600049a8      0x174 ./board/pin_mux.o
                0x00000000600049a8                BOARD_InitPins
 .text.malloc   0x0000000060004b1c       0xc8 /usr/local/mcuxpressoide-11.1.0_3209/ide/plugins/com.nxp.mcuxpresso.tools.linux_11.1.0.201909161352/tools/bin/../lib/gcc/arm-none-eabi/8.3.1/../../../../arm-none-eabi/lib/thumb/v7e-m+dp/hard/libcr_c.a(alloc.o)
                0x0000000060004b1c                malloc
 .text._Csys_alloc
                0x0000000060004be4       0x20 /usr/local/mcuxpressoide-11.1.0_3209/ide/plugins/com.nxp.mcuxpresso.tools.linux_11.1.0.201909161352/tools/bin/../lib/gcc/arm-none-eabi/8.3.1/../../../../arm-none-eabi/lib/thumb/v7e-m+dp/hard/libcr_c.a(alloc.o)
                0x0000000060004be4                _Csys_alloc
 .text._initio  0x0000000060004c04       0x78 /usr/local/mcuxpressoide-11.1.0_3209/ide/plugins/com.nxp.mcuxpresso.tools.linux_11.1.0.201909161352/tools/bin/../lib/gcc/arm-none-eabi/8.3.1/../../../../arm-none-eabi/lib/thumb/v7e-m+dp/hard/libcr_c.a(initio.o)
                0x0000000060004c04                _initio
 .text.__vfprintf
                0x0000000060004c7c      0xbdc /usr/local/mcuxpressoide-11.1.0_3209/ide/plugins/com.nxp.mcuxpresso.tools.linux_11.1.0.201909161352/tools/bin/../lib/gcc/arm-none-eabi/8.3.1/../../../../arm-none-eabi/lib/thumb/v7e-m+dp/hard/libcr_c.a(printf.o)
                0x0000000060004c7c                __vfprintf
 .text._vsnprintf
                0x0000000060005858       0x68 /usr/local/mcuxpressoide-11.1.0_3209/ide/plugins/com.nxp.mcuxpresso.tools.linux_11.1.0.201909161352/tools/bin/../lib/gcc/arm-none-eabi/8.3.1/../../../../arm-none-eabi/lib/thumb/v7e-m+dp/hard/libcr_c.a(printf.o)
                0x0000000060005858                _vsnprintf
 .text._printf  0x00000000600058c0       0x54 /usr/local/mcuxpressoide-11.1.0_3209/ide/plugins/com.nxp.mcuxpresso.tools.linux_11.1.0.201909161352/tools/bin/../lib/gcc/arm-none-eabi/8.3.1/../../../../arm-none-eabi/lib/thumb/v7e-m+dp/hard/libcr_c.a(printf.o)
                0x00000000600058c0                _printf
 .text.setvbuf  0x0000000060005914       0x40 /usr/local/mcuxpressoide-11.1.0_3209/ide/plugins/com.nxp.mcuxpresso.tools.linux_11.1.0.201909161352/tools/bin/../lib/gcc/arm-none-eabi/8.3.1/../../../../arm-none-eabi/lib/thumb/v7e-m+dp/hard/libcr_c.a(setvbuf.o)
                0x0000000060005914                setvbuf
 .text._sbrk    0x0000000060005954       0x3c /usr/local/mcuxpressoide-11.1.0_3209/ide/plugins/com.nxp.mcuxpresso.tools.linux_11.1.0.201909161352/tools/bin/../lib/gcc/arm-none-eabi/8.3.1/../../../../arm-none-eabi/lib/thumb/v7e-m+dp/hard/libcr_c.a(_cr_sbrk.o)
                0x0000000060005954                _sbrk
 .text._Cwritebuf
                0x0000000060005990       0x6c /usr/local/mcuxpressoide-11.1.0_3209/ide/plugins/com.nxp.mcuxpresso.tools.linux_11.1.0.201909161352/tools/bin/../lib/gcc/arm-none-eabi/8.3.1/../../../../arm-none-eabi/lib/thumb/v7e-m+dp/hard/libcr_c.a(_writebuf.o)
                0x0000000060005990                _Cwritebuf
 .text.fflush   0x00000000600059fc       0x44 /usr/local/mcuxpressoide-11.1.0_3209/ide/plugins/com.nxp.mcuxpresso.tools.linux_11.1.0.201909161352/tools/bin/../lib/gcc/arm-none-eabi/8.3.1/../../../../arm-none-eabi/lib/thumb/v7e-m+dp/hard/libcr_c.a(fflush.o)
                0x00000000600059fc                fflush
 .text.fseek    0x0000000060005a40      0x100 /usr/local/mcuxpressoide-11.1.0_3209/ide/plugins/com.nxp.mcuxpresso.tools.linux_11.1.0.201909161352/tools/bin/../lib/gcc/arm-none-eabi/8.3.1/../../../../arm-none-eabi/lib/thumb/v7e-m+dp/hard/libcr_c.a(fseek.o)
                0x0000000060005a40                fseek
 .text.ftell    0x0000000060005b40       0x48 /usr/local/mcuxpressoide-11.1.0_3209/ide/plugins/com.nxp.mcuxpresso.tools.linux_11.1.0.201909161352/tools/bin/../lib/gcc/arm-none-eabi/8.3.1/../../../../arm-none-eabi/lib/thumb/v7e-m+dp/hard/libcr_c.a(ftell.o)
                0x0000000060005b40                ftell
 .text.__check_heap_overflow
                0x0000000060005b88       0x18 /usr/local/mcuxpressoide-11.1.0_3209/ide/plugins/com.nxp.mcuxpresso.tools.linux_11.1.0.201909161352/tools/bin/../lib/gcc/arm-none-eabi/8.3.1/../../../../arm-none-eabi/lib/thumb/v7e-m+dp/hard/libcr_c.a(_cr_check_heap.o)
                0x0000000060005b88                __check_heap_overflow
 .text.__sys_appexit
                0x0000000060005ba0        0xc /usr/local/mcuxpressoide-11.1.0_3209/ide/plugins/com.nxp.mcuxpresso.tools.linux_11.1.0.201909161352/tools/bin/../lib/gcc/arm-none-eabi/8.3.1/../../../../arm-none-eabi/lib/thumb/v7e-m+dp/hard/libcr_semihost_nf.a(__sys_appexit.o)
                0x0000000060005ba0                __exit
                0x0000000060005ba0                __sys_appexit
 .text.DMA0_DMA16_IRQHandler
                0x0000000060005bac        0x8 ./startup/startup_mimxrt1021.o
                0x0000000060005bac                DMA0_DMA16_IRQHandler
 .text.DMA1_DMA17_IRQHandler
                0x0000000060005bb4        0x8 ./startup/startup_mimxrt1021.o
                0x0000000060005bb4                DMA1_DMA17_IRQHandler
 .text.DMA2_DMA18_IRQHandler
                0x0000000060005bbc        0x8 ./startup/startup_mimxrt1021.o
                0x0000000060005bbc                DMA2_DMA18_IRQHandler
 .text.DMA3_DMA19_IRQHandler
                0x0000000060005bc4        0x8 ./startup/startup_mimxrt1021.o
                0x0000000060005bc4                DMA3_DMA19_IRQHandler
 .text.DMA4_DMA20_IRQHandler
                0x0000000060005bcc        0x8 ./startup/startup_mimxrt1021.o
                0x0000000060005bcc                DMA4_DMA20_IRQHandler
 .text.DMA5_DMA21_IRQHandler
                0x0000000060005bd4        0x8 ./startup/startup_mimxrt1021.o
                0x0000000060005bd4                DMA5_DMA21_IRQHandler
 .text.DMA6_DMA22_IRQHandler
                0x0000000060005bdc        0x8 ./startup/startup_mimxrt1021.o
                0x0000000060005bdc                DMA6_DMA22_IRQHandler
 .text.DMA7_DMA23_IRQHandler
                0x0000000060005be4        0x8 ./startup/startup_mimxrt1021.o
                0x0000000060005be4                DMA7_DMA23_IRQHandler
 .text.DMA8_DMA24_IRQHandler
                0x0000000060005bec        0x8 ./startup/startup_mimxrt1021.o
                0x0000000060005bec                DMA8_DMA24_IRQHandler
 .text.DMA9_DMA25_IRQHandler
                0x0000000060005bf4        0x8 ./startup/startup_mimxrt1021.o
                0x0000000060005bf4                DMA9_DMA25_IRQHandler
 .text.DMA10_DMA26_IRQHandler
                0x0000000060005bfc        0x8 ./startup/startup_mimxrt1021.o
                0x0000000060005bfc                DMA10_DMA26_IRQHandler
 .text.DMA11_DMA27_IRQHandler
                0x0000000060005c04        0x8 ./startup/startup_mimxrt1021.o
                0x0000000060005c04                DMA11_DMA27_IRQHandler
 .text.DMA12_DMA28_IRQHandler
                0x0000000060005c0c        0x8 ./startup/startup_mimxrt1021.o
                0x0000000060005c0c                DMA12_DMA28_IRQHandler
 .text.DMA13_DMA29_IRQHandler
                0x0000000060005c14        0x8 ./startup/startup_mimxrt1021.o
                0x0000000060005c14                DMA13_DMA29_IRQHandler
 .text.DMA14_DMA30_IRQHandler
                0x0000000060005c1c        0x8 ./startup/startup_mimxrt1021.o
                0x0000000060005c1c                DMA14_DMA30_IRQHandler
 .text.DMA15_DMA31_IRQHandler
                0x0000000060005c24        0x8 ./startup/startup_mimxrt1021.o
                0x0000000060005c24                DMA15_DMA31_IRQHandler
 .text.DMA_ERROR_IRQHandler
                0x0000000060005c2c        0x8 ./startup/startup_mimxrt1021.o
                0x0000000060005c2c                DMA_ERROR_IRQHandler
 .text.CTI0_ERROR_IRQHandler
                0x0000000060005c34        0x8 ./startup/startup_mimxrt1021.o
                0x0000000060005c34                CTI0_ERROR_IRQHandler
 .text.CTI1_ERROR_IRQHandler
                0x0000000060005c3c        0x8 ./startup/startup_mimxrt1021.o
                0x0000000060005c3c                CTI1_ERROR_IRQHandler
 .text.CORE_IRQHandler
                0x0000000060005c44        0x8 ./startup/startup_mimxrt1021.o
                0x0000000060005c44                CORE_IRQHandler
 .text.LPUART1_IRQHandler
                0x0000000060005c4c        0x8 ./startup/startup_mimxrt1021.o
                0x0000000060005c4c                LPUART1_IRQHandler
 .text.LPUART2_IRQHandler
                0x0000000060005c54        0x8 ./startup/startup_mimxrt1021.o
                0x0000000060005c54                LPUART2_IRQHandler
 .text.LPUART3_IRQHandler
                0x0000000060005c5c        0x8 ./startup/startup_mimxrt1021.o
                0x0000000060005c5c                LPUART3_IRQHandler
 .text.LPUART4_IRQHandler
                0x0000000060005c64        0x8 ./startup/startup_mimxrt1021.o
                0x0000000060005c64                LPUART4_IRQHandler
 .text.LPUART5_IRQHandler
                0x0000000060005c6c        0x8 ./startup/startup_mimxrt1021.o
                0x0000000060005c6c                LPUART5_IRQHandler
 .text.LPUART6_IRQHandler
                0x0000000060005c74        0x8 ./startup/startup_mimxrt1021.o
                0x0000000060005c74                LPUART6_IRQHandler
 .text.LPUART7_IRQHandler
                0x0000000060005c7c        0x8 ./startup/startup_mimxrt1021.o
                0x0000000060005c7c                LPUART7_IRQHandler
 .text.LPUART8_IRQHandler
                0x0000000060005c84        0x8 ./startup/startup_mimxrt1021.o
                0x0000000060005c84                LPUART8_IRQHandler
 .text.LPI2C1_IRQHandler
                0x0000000060005c8c        0x8 ./startup/startup_mimxrt1021.o
                0x0000000060005c8c                LPI2C1_IRQHandler
 .text.LPI2C2_IRQHandler
                0x0000000060005c94        0x8 ./startup/startup_mimxrt1021.o
                0x0000000060005c94                LPI2C2_IRQHandler
 .text.LPI2C3_IRQHandler
                0x0000000060005c9c        0x8 ./startup/startup_mimxrt1021.o
                0x0000000060005c9c                LPI2C3_IRQHandler
 .text.LPI2C4_IRQHandler
                0x0000000060005ca4        0x8 ./startup/startup_mimxrt1021.o
                0x0000000060005ca4                LPI2C4_IRQHandler
 .text.LPSPI1_IRQHandler
                0x0000000060005cac        0x8 ./startup/startup_mimxrt1021.o
                0x0000000060005cac                LPSPI1_IRQHandler
 .text.LPSPI2_IRQHandler
                0x0000000060005cb4        0x8 ./startup/startup_mimxrt1021.o
                0x0000000060005cb4                LPSPI2_IRQHandler
 .text.LPSPI3_IRQHandler
                0x0000000060005cbc        0x8 ./startup/startup_mimxrt1021.o
                0x0000000060005cbc                LPSPI3_IRQHandler
 .text.LPSPI4_IRQHandler
                0x0000000060005cc4        0x8 ./startup/startup_mimxrt1021.o
                0x0000000060005cc4                LPSPI4_IRQHandler
 .text.CAN1_IRQHandler
                0x0000000060005ccc        0x8 ./startup/startup_mimxrt1021.o
                0x0000000060005ccc                CAN1_IRQHandler
 .text.CAN2_IRQHandler
                0x0000000060005cd4        0x8 ./startup/startup_mimxrt1021.o
                0x0000000060005cd4                CAN2_IRQHandler
 .text.FLEXRAM_IRQHandler
                0x0000000060005cdc        0x8 ./startup/startup_mimxrt1021.o
                0x0000000060005cdc                FLEXRAM_IRQHandler
 .text.KPP_IRQHandler
                0x0000000060005ce4        0x8 ./startup/startup_mimxrt1021.o
                0x0000000060005ce4                KPP_IRQHandler
 .text.Reserved56_IRQHandler
                0x0000000060005cec        0x8 ./startup/startup_mimxrt1021.o
                0x0000000060005cec                Reserved56_IRQHandler
 .text.GPR_IRQ_IRQHandler
                0x0000000060005cf4        0x8 ./startup/startup_mimxrt1021.o
                0x0000000060005cf4                GPR_IRQ_IRQHandler
 .text.Reserved58_IRQHandler
                0x0000000060005cfc        0x8 ./startup/startup_mimxrt1021.o
                0x0000000060005cfc                Reserved58_IRQHandler
 .text.Reserved59_IRQHandler
                0x0000000060005d04        0x8 ./startup/startup_mimxrt1021.o
                0x0000000060005d04                Reserved59_IRQHandler
 .text.Reserved60_IRQHandler
                0x0000000060005d0c        0x8 ./startup/startup_mimxrt1021.o
                0x0000000060005d0c                Reserved60_IRQHandler
 .text.WDOG2_IRQHandler
                0x0000000060005d14        0x8 ./startup/startup_mimxrt1021.o
                0x0000000060005d14                WDOG2_IRQHandler
 .text.SNVS_HP_WRAPPER_IRQHandler
                0x0000000060005d1c        0x8 ./startup/startup_mimxrt1021.o
                0x0000000060005d1c                SNVS_HP_WRAPPER_IRQHandler
 .text.SNVS_HP_WRAPPER_TZ_IRQHandler
                0x0000000060005d24        0x8 ./startup/startup_mimxrt1021.o
                0x0000000060005d24                SNVS_HP_WRAPPER_TZ_IRQHandler
 .text.SNVS_LP_WRAPPER_IRQHandler
                0x0000000060005d2c        0x8 ./startup/startup_mimxrt1021.o
                0x0000000060005d2c                SNVS_LP_WRAPPER_IRQHandler
 .text.CSU_IRQHandler
                0x0000000060005d34        0x8 ./startup/startup_mimxrt1021.o
                0x0000000060005d34                CSU_IRQHandler
 .text.DCP_IRQHandler
                0x0000000060005d3c        0x8 ./startup/startup_mimxrt1021.o
                0x0000000060005d3c                DCP_IRQHandler
 .text.DCP_VMI_IRQHandler
                0x0000000060005d44        0x8 ./startup/startup_mimxrt1021.o
                0x0000000060005d44                DCP_VMI_IRQHandler
 .text.Reserved68_IRQHandler
                0x0000000060005d4c        0x8 ./startup/startup_mimxrt1021.o
                0x0000000060005d4c                Reserved68_IRQHandler
 .text.TRNG_IRQHandler
                0x0000000060005d54        0x8 ./startup/startup_mimxrt1021.o
                0x0000000060005d54                TRNG_IRQHandler
 .text.Reserved70_IRQHandler
                0x0000000060005d5c        0x8 ./startup/startup_mimxrt1021.o
                0x0000000060005d5c                Reserved70_IRQHandler
 .text.BEE_IRQHandler
                0x0000000060005d64        0x8 ./startup/startup_mimxrt1021.o
                0x0000000060005d64                BEE_IRQHandler
 .text.SAI1_IRQHandler
                0x0000000060005d6c        0x8 ./startup/startup_mimxrt1021.o
                0x0000000060005d6c                SAI1_IRQHandler
 .text.SAI2_IRQHandler
                0x0000000060005d74        0x8 ./startup/startup_mimxrt1021.o
                0x0000000060005d74                SAI2_IRQHandler
 .text.SAI3_RX_IRQHandler
                0x0000000060005d7c        0x8 ./startup/startup_mimxrt1021.o
                0x0000000060005d7c                SAI3_RX_IRQHandler
 .text.SAI3_TX_IRQHandler
                0x0000000060005d84        0x8 ./startup/startup_mimxrt1021.o
                0x0000000060005d84                SAI3_TX_IRQHandler
 .text.SPDIF_IRQHandler
                0x0000000060005d8c        0x8 ./startup/startup_mimxrt1021.o
                0x0000000060005d8c                SPDIF_IRQHandler
 .text.PMU_IRQHandler
                0x0000000060005d94        0x8 ./startup/startup_mimxrt1021.o
                0x0000000060005d94                PMU_IRQHandler
 .text.Reserved78_IRQHandler
                0x0000000060005d9c        0x8 ./startup/startup_mimxrt1021.o
                0x0000000060005d9c                Reserved78_IRQHandler
 .text.TEMP_LOW_HIGH_IRQHandler
                0x0000000060005da4        0x8 ./startup/startup_mimxrt1021.o
                0x0000000060005da4                TEMP_LOW_HIGH_IRQHandler
 .text.TEMP_PANIC_IRQHandler
                0x0000000060005dac        0x8 ./startup/startup_mimxrt1021.o
                0x0000000060005dac                TEMP_PANIC_IRQHandler
 .text.USB_PHY_IRQHandler
                0x0000000060005db4        0x8 ./startup/startup_mimxrt1021.o
                0x0000000060005db4                USB_PHY_IRQHandler
 .text.Reserved82_IRQHandler
                0x0000000060005dbc        0x8 ./startup/startup_mimxrt1021.o
                0x0000000060005dbc                Reserved82_IRQHandler
 .text.ADC1_IRQHandler
                0x0000000060005dc4        0x8 ./startup/startup_mimxrt1021.o
                0x0000000060005dc4                ADC1_IRQHandler
 .text.ADC2_IRQHandler
                0x0000000060005dcc        0x8 ./startup/startup_mimxrt1021.o
                0x0000000060005dcc                ADC2_IRQHandler
 .text.DCDC_IRQHandler
                0x0000000060005dd4        0x8 ./startup/startup_mimxrt1021.o
                0x0000000060005dd4                DCDC_IRQHandler
 .text.Reserved86_IRQHandler
                0x0000000060005ddc        0x8 ./startup/startup_mimxrt1021.o
                0x0000000060005ddc                Reserved86_IRQHandler
 .text.Reserved87_IRQHandler
                0x0000000060005de4        0x8 ./startup/startup_mimxrt1021.o
                0x0000000060005de4                Reserved87_IRQHandler
 .text.GPIO1_INT0_IRQHandler
                0x0000000060005dec        0x8 ./startup/startup_mimxrt1021.o
                0x0000000060005dec                GPIO1_INT0_IRQHandler
 .text.GPIO1_INT1_IRQHandler
                0x0000000060005df4        0x8 ./startup/startup_mimxrt1021.o
                0x0000000060005df4                GPIO1_INT1_IRQHandler
 .text.GPIO1_INT2_IRQHandler
                0x0000000060005dfc        0x8 ./startup/startup_mimxrt1021.o
                0x0000000060005dfc                GPIO1_INT2_IRQHandler
 .text.GPIO1_INT3_IRQHandler
                0x0000000060005e04        0x8 ./startup/startup_mimxrt1021.o
                0x0000000060005e04                GPIO1_INT3_IRQHandler
 .text.GPIO1_INT4_IRQHandler
                0x0000000060005e0c        0x8 ./startup/startup_mimxrt1021.o
                0x0000000060005e0c                GPIO1_INT4_IRQHandler
 .text.GPIO1_INT5_IRQHandler
                0x0000000060005e14        0x8 ./startup/startup_mimxrt1021.o
                0x0000000060005e14                GPIO1_INT5_IRQHandler
 .text.GPIO1_INT6_IRQHandler
                0x0000000060005e1c        0x8 ./startup/startup_mimxrt1021.o
                0x0000000060005e1c                GPIO1_INT6_IRQHandler
 .text.GPIO1_INT7_IRQHandler
                0x0000000060005e24        0x8 ./startup/startup_mimxrt1021.o
                0x0000000060005e24                GPIO1_INT7_IRQHandler
 .text.GPIO1_Combined_0_15_IRQHandler
                0x0000000060005e2c        0x8 ./startup/startup_mimxrt1021.o
                0x0000000060005e2c                GPIO1_Combined_0_15_IRQHandler
 .text.GPIO1_Combined_16_31_IRQHandler
                0x0000000060005e34        0x8 ./startup/startup_mimxrt1021.o
                0x0000000060005e34                GPIO1_Combined_16_31_IRQHandler
 .text.GPIO2_Combined_0_15_IRQHandler
                0x0000000060005e3c        0x8 ./startup/startup_mimxrt1021.o
                0x0000000060005e3c                GPIO2_Combined_0_15_IRQHandler
 .text.GPIO2_Combined_16_31_IRQHandler
                0x0000000060005e44        0x8 ./startup/startup_mimxrt1021.o
                0x0000000060005e44                GPIO2_Combined_16_31_IRQHandler
 .text.GPIO3_Combined_0_15_IRQHandler
                0x0000000060005e4c        0x8 ./startup/startup_mimxrt1021.o
                0x0000000060005e4c                GPIO3_Combined_0_15_IRQHandler
 .text.GPIO3_Combined_16_31_IRQHandler
                0x0000000060005e54        0x8 ./startup/startup_mimxrt1021.o
                0x0000000060005e54                GPIO3_Combined_16_31_IRQHandler
 .text.Reserved102_IRQHandler
                0x0000000060005e5c        0x8 ./startup/startup_mimxrt1021.o
                0x0000000060005e5c                Reserved102_IRQHandler
 .text.Reserved103_IRQHandler
                0x0000000060005e64        0x8 ./startup/startup_mimxrt1021.o
                0x0000000060005e64                Reserved103_IRQHandler
 .text.GPIO5_Combined_0_15_IRQHandler
                0x0000000060005e6c        0x8 ./startup/startup_mimxrt1021.o
                0x0000000060005e6c                GPIO5_Combined_0_15_IRQHandler
 .text.GPIO5_Combined_16_31_IRQHandler
                0x0000000060005e74        0x8 ./startup/startup_mimxrt1021.o
                0x0000000060005e74                GPIO5_Combined_16_31_IRQHandler
 .text.FLEXIO1_IRQHandler
                0x0000000060005e7c        0x8 ./startup/startup_mimxrt1021.o
                0x0000000060005e7c                FLEXIO1_IRQHandler
 .text.Reserved107_IRQHandler
                0x0000000060005e84        0x8 ./startup/startup_mimxrt1021.o
                0x0000000060005e84                Reserved107_IRQHandler
 .text.WDOG1_IRQHandler
                0x0000000060005e8c        0x8 ./startup/startup_mimxrt1021.o
                0x0000000060005e8c                WDOG1_IRQHandler
 .text.RTWDOG_IRQHandler
                0x0000000060005e94        0x8 ./startup/startup_mimxrt1021.o
                0x0000000060005e94                RTWDOG_IRQHandler
 .text.EWM_IRQHandler
                0x0000000060005e9c        0x8 ./startup/startup_mimxrt1021.o
                0x0000000060005e9c                EWM_IRQHandler
 .text.CCM_1_IRQHandler
                0x0000000060005ea4        0x8 ./startup/startup_mimxrt1021.o
                0x0000000060005ea4                CCM_1_IRQHandler
 .text.CCM_2_IRQHandler
                0x0000000060005eac        0x8 ./startup/startup_mimxrt1021.o
                0x0000000060005eac                CCM_2_IRQHandler
 .text.GPC_IRQHandler
                0x0000000060005eb4        0x8 ./startup/startup_mimxrt1021.o
                0x0000000060005eb4                GPC_IRQHandler
 .text.SRC_IRQHandler
                0x0000000060005ebc        0x8 ./startup/startup_mimxrt1021.o
                0x0000000060005ebc                SRC_IRQHandler
 .text.Reserved115_IRQHandler
                0x0000000060005ec4        0x8 ./startup/startup_mimxrt1021.o
                0x0000000060005ec4                Reserved115_IRQHandler
 .text.GPT1_IRQHandler
                0x0000000060005ecc        0x8 ./startup/startup_mimxrt1021.o
                0x0000000060005ecc                GPT1_IRQHandler
 .text.GPT2_IRQHandler
                0x0000000060005ed4        0x8 ./startup/startup_mimxrt1021.o
                0x0000000060005ed4                GPT2_IRQHandler
 .text.PWM1_0_IRQHandler
                0x0000000060005edc        0x8 ./startup/startup_mimxrt1021.o
                0x0000000060005edc                PWM1_0_IRQHandler
 .text.PWM1_1_IRQHandler
                0x0000000060005ee4        0x8 ./startup/startup_mimxrt1021.o
                0x0000000060005ee4                PWM1_1_IRQHandler
 .text.PWM1_2_IRQHandler
                0x0000000060005eec        0x8 ./startup/startup_mimxrt1021.o
                0x0000000060005eec                PWM1_2_IRQHandler
 .text.PWM1_3_IRQHandler
                0x0000000060005ef4        0x8 ./startup/startup_mimxrt1021.o
                0x0000000060005ef4                PWM1_3_IRQHandler
 .text.PWM1_FAULT_IRQHandler
                0x0000000060005efc        0x8 ./startup/startup_mimxrt1021.o
                0x0000000060005efc                PWM1_FAULT_IRQHandler
 .text.Reserved123_IRQHandler
                0x0000000060005f04        0x8 ./startup/startup_mimxrt1021.o
                0x0000000060005f04                Reserved123_IRQHandler
 .text.FLEXSPI_IRQHandler
                0x0000000060005f0c        0x8 ./startup/startup_mimxrt1021.o
                0x0000000060005f0c                FLEXSPI_IRQHandler
 .text.SEMC_IRQHandler
                0x0000000060005f14        0x8 ./startup/startup_mimxrt1021.o
                0x0000000060005f14                SEMC_IRQHandler
 .text.USDHC1_IRQHandler
                0x0000000060005f1c        0x8 ./startup/startup_mimxrt1021.o
                0x0000000060005f1c                USDHC1_IRQHandler
 .text.USDHC2_IRQHandler
                0x0000000060005f24        0x8 ./startup/startup_mimxrt1021.o
                0x0000000060005f24                USDHC2_IRQHandler
 .text.Reserved128_IRQHandler
                0x0000000060005f2c        0x8 ./startup/startup_mimxrt1021.o
                0x0000000060005f2c                Reserved128_IRQHandler
 .text.USB_OTG1_IRQHandler
                0x0000000060005f34        0x8 ./startup/startup_mimxrt1021.o
                0x0000000060005f34                USB_OTG1_IRQHandler
 .text.ENET_IRQHandler
                0x0000000060005f3c        0x8 ./startup/startup_mimxrt1021.o
                0x0000000060005f3c                ENET_IRQHandler
 .text.ENET_1588_Timer_IRQHandler
                0x0000000060005f44        0x8 ./startup/startup_mimxrt1021.o
                0x0000000060005f44                ENET_1588_Timer_IRQHandler
 .text.XBAR1_IRQ_2_3_IRQHandler
                0x0000000060005f4c        0x8 ./startup/startup_mimxrt1021.o
                0x0000000060005f4c                XBAR1_IRQ_2_3_IRQHandler
 .text.ADC_ETC_IRQ0_IRQHandler
                0x0000000060005f54        0x8 ./startup/startup_mimxrt1021.o
                0x0000000060005f54                ADC_ETC_IRQ0_IRQHandler
 .text.ADC_ETC_IRQ1_IRQHandler
                0x0000000060005f5c        0x8 ./startup/startup_mimxrt1021.o
                0x0000000060005f5c                ADC_ETC_IRQ1_IRQHandler
 .text.ADC_ETC_IRQ2_IRQHandler
                0x0000000060005f64        0x8 ./startup/startup_mimxrt1021.o
                0x0000000060005f64                ADC_ETC_IRQ2_IRQHandler
 .text.ADC_ETC_ERROR_IRQ_IRQHandler
                0x0000000060005f6c        0x8 ./startup/startup_mimxrt1021.o
                0x0000000060005f6c                ADC_ETC_ERROR_IRQ_IRQHandler
 .text.PIT_IRQHandler
                0x0000000060005f74        0x8 ./startup/startup_mimxrt1021.o
                0x0000000060005f74                PIT_IRQHandler
 .text.ACMP1_IRQHandler
                0x0000000060005f7c        0x8 ./startup/startup_mimxrt1021.o
                0x0000000060005f7c                ACMP1_IRQHandler
 .text.ACMP2_IRQHandler
                0x0000000060005f84        0x8 ./startup/startup_mimxrt1021.o
                0x0000000060005f84                ACMP2_IRQHandler
 .text.ACMP3_IRQHandler
                0x0000000060005f8c        0x8 ./startup/startup_mimxrt1021.o
                0x0000000060005f8c                ACMP3_IRQHandler
 .text.ACMP4_IRQHandler
                0x0000000060005f94        0x8 ./startup/startup_mimxrt1021.o
                0x0000000060005f94                ACMP4_IRQHandler
 .text.Reserved143_IRQHandler
                0x0000000060005f9c        0x8 ./startup/startup_mimxrt1021.o
                0x0000000060005f9c                Reserved143_IRQHandler
 .text.Reserved144_IRQHandler
                0x0000000060005fa4        0x8 ./startup/startup_mimxrt1021.o
                0x0000000060005fa4                Reserved144_IRQHandler
 .text.ENC1_IRQHandler
                0x0000000060005fac        0x8 ./startup/startup_mimxrt1021.o
                0x0000000060005fac                ENC1_IRQHandler
 .text.ENC2_IRQHandler
                0x0000000060005fb4        0x8 ./startup/startup_mimxrt1021.o
                0x0000000060005fb4                ENC2_IRQHandler
 .text.Reserved147_IRQHandler
                0x0000000060005fbc        0x8 ./startup/startup_mimxrt1021.o
                0x0000000060005fbc                Reserved147_IRQHandler
 .text.Reserved148_IRQHandler
                0x0000000060005fc4        0x8 ./startup/startup_mimxrt1021.o
                0x0000000060005fc4                Reserved148_IRQHandler
 .text.TMR1_IRQHandler
                0x0000000060005fcc        0x8 ./startup/startup_mimxrt1021.o
                0x0000000060005fcc                TMR1_IRQHandler
 .text.Reserved151_IRQHandler
                0x0000000060005fd4        0x8 ./startup/startup_mimxrt1021.o
                0x0000000060005fd4                Reserved151_IRQHandler
 .text.Reserved152_IRQHandler
                0x0000000060005fdc        0x8 ./startup/startup_mimxrt1021.o
                0x0000000060005fdc                Reserved152_IRQHandler
 .text.PWM2_0_IRQHandler
                0x0000000060005fe4        0x8 ./startup/startup_mimxrt1021.o
                0x0000000060005fe4                PWM2_0_IRQHandler
 .text.PWM2_1_IRQHandler
                0x0000000060005fec        0x8 ./startup/startup_mimxrt1021.o
                0x0000000060005fec                PWM2_1_IRQHandler
 .text.PWM2_2_IRQHandler
                0x0000000060005ff4        0x8 ./startup/startup_mimxrt1021.o
                0x0000000060005ff4                PWM2_2_IRQHandler
 .text.PWM2_3_IRQHandler
                0x0000000060005ffc        0x8 ./startup/startup_mimxrt1021.o
                0x0000000060005ffc                PWM2_3_IRQHandler
 .text.PWM2_FAULT_IRQHandler
                0x0000000060006004        0x8 ./startup/startup_mimxrt1021.o
                0x0000000060006004                PWM2_FAULT_IRQHandler
 .text.EnableIRQ
                0x000000006000600c       0x2c ./source/qtmr_inputcapture_outputpwm.o
 .text.QTMR_StartTimer
                0x0000000060006038       0x4e ./source/qtmr_inputcapture_outputpwm.o
 .text.LPSPI_Enable
                0x0000000060006086       0x38 ./source/qtmr_inputcapture_outputpwm.o
 .text.LPSPI_ClearStatusFlags
                0x00000000600060be       0x1c ./source/qtmr_inputcapture_outputpwm.o
 .text.LPSPI_DisableInterrupts
                0x00000000600060da       0x24 ./source/qtmr_inputcapture_outputpwm.o
 .text.LPSPI_SetFifoWatermarks
                0x00000000600060fe       0x2c ./source/qtmr_inputcapture_outputpwm.o
 .text.LPSPI_WriteData
                0x000000006000612a       0x1c ./source/qtmr_inputcapture_outputpwm.o
 .text.HardFault_Handler
                0x0000000060006146       0x2c ./source/semihost_hardfault.o
                0x0000000060006146                HardFault_Handler
 .text.CLOCK_GetRtcFreq
                0x0000000060006172       0x12 ./drivers/fsl_clock.o
 .text.CLOCK_IsPllBypassed
                0x0000000060006184       0x32 ./drivers/fsl_clock.o
 .text.CLOCK_IsPllEnabled
                0x00000000600061b6       0x3c ./drivers/fsl_clock.o
 .text.CLOCK_GetPllBypassRefClk
                0x00000000600061f2       0x34 ./drivers/fsl_clock.o
 .text.CLOCK_EnableClock
                0x0000000060006226       0x1e ./drivers/fsl_lpspi.o
 .text.LPSPI_Enable
                0x0000000060006244       0x38 ./drivers/fsl_lpspi.o
 .text.LPSPI_SetMasterSlaveMode
                0x000000006000627c       0x2c ./drivers/fsl_lpspi.o
 .text.LPSPI_IsMaster
                0x00000000600062a8       0x26 ./drivers/fsl_lpspi.o
 .text.LPSPI_SetFifoWatermarks
                0x00000000600062ce       0x2c ./drivers/fsl_lpspi.o
 .text.LPSPI_SetOnePcsPolarity
                0x00000000600062fa       0x44 ./drivers/fsl_lpspi.o
 .text.CLOCK_EnableClock
                0x000000006000633e       0x1e ./drivers/fsl_qtmr.o
 .text.QTMR_ClearStatusFlags
                0x000000006000635c       0xac ./drivers/fsl_qtmr.o
                0x000000006000635c                QTMR_ClearStatusFlags
 .text.CLOCK_EnableClock
                0x0000000060006408       0x1e ./drivers/fsl_xbara.o
 .text.XBARA_Init
                0x0000000060006426       0x20 ./drivers/fsl_xbara.o
                0x0000000060006426                XBARA_Init
 .text.XBARA_SetSignalsConnection
                0x0000000060006446       0x5a ./drivers/fsl_xbara.o
                0x0000000060006446                XBARA_SetSignalsConnection
 .text.XBARA_ClearStatusFlags
                0x00000000600064a0       0x7c ./drivers/fsl_xbara.o
                0x00000000600064a0                XBARA_ClearStatusFlags
 .text.SystemInitHook
                0x000000006000651c        0xe ./device/system_MIMXRT1021.o
                0x000000006000651c                SystemInitHook
 .text.DbgConsole_Init
                0x000000006000652a       0x20 ./board/board.o
 .text.BOARD_InitDebugConsole
                0x000000006000654a       0x22 ./board/board.o
                0x000000006000654a                BOARD_InitDebugConsole
 .text.CLOCK_DisableClock
                0x000000006000656c       0x1e ./board/clock_config.o
 .text.CLOCK_SetPllBypass
                0x000000006000658a       0x4e ./board/clock_config.o
 .text.IOMUXC_SetSaiMClkClockSource
                0x00000000600065d8       0x6c ./board/clock_config.o
 .text.CLOCK_EnableClock
                0x0000000060006644       0x1e ./board/pin_mux.o
 .text.IOMUXC_SetPinMux
                0x0000000060006662       0x3a ./board/pin_mux.o
 .text.IOMUXC_SetPinConfig
                0x000000006000669c       0x26 ./board/pin_mux.o
 .text.__main   0x00000000600066c2        0xe /usr/local/mcuxpressoide-11.1.0_3209/ide/plugins/com.nxp.mcuxpresso.tools.linux_11.1.0.201909161352/tools/bin/../lib/gcc/arm-none-eabi/8.3.1/../../../../arm-none-eabi/lib/thumb/v7e-m+dp/hard/libcr_semihost_nf.a(_cr__main.o)
                0x00000000600066c2                __main
                0x00000000600066c2                __CR_SEMIHOST
 .text.memset   0x00000000600066d0        0x4 /usr/local/mcuxpressoide-11.1.0_3209/ide/plugins/com.nxp.mcuxpresso.tools.linux_11.1.0.201909161352/tools/bin/../lib/gcc/arm-none-eabi/8.3.1/../../../../arm-none-eabi/lib/thumb/v7e-m+dp/hard/libcr_c.a(memset.o)
                0x00000000600066d0                memset
 .text.free     0x00000000600066d4       0x30 /usr/local/mcuxpressoide-11.1.0_3209/ide/plugins/com.nxp.mcuxpresso.tools.linux_11.1.0.201909161352/tools/bin/../lib/gcc/arm-none-eabi/8.3.1/../../../../arm-none-eabi/lib/thumb/v7e-m+dp/hard/libcr_c.a(alloc.o)
                0x00000000600066d4                free
 .text.no_fp_display
                0x0000000060006704        0x4 /usr/local/mcuxpressoide-11.1.0_3209/ide/plugins/com.nxp.mcuxpresso.tools.linux_11.1.0.201909161352/tools/bin/../lib/gcc/arm-none-eabi/8.3.1/../../../../arm-none-eabi/lib/thumb/v7e-m+dp/hard/libcr_c.a(printf.o)
 .text.strlen   0x0000000060006708       0x4c /usr/local/mcuxpressoide-11.1.0_3209/ide/plugins/com.nxp.mcuxpresso.tools.linux_11.1.0.201909161352/tools/bin/../lib/gcc/arm-none-eabi/8.3.1/../../../../arm-none-eabi/lib/thumb/v7e-m+dp/hard/libcr_c.a(strlen.o)
                0x0000000060006708                strlen
 .text._deferredlazyseek
                0x0000000060006754       0x40 /usr/local/mcuxpressoide-11.1.0_3209/ide/plugins/com.nxp.mcuxpresso.tools.linux_11.1.0.201909161352/tools/bin/../lib/gcc/arm-none-eabi/8.3.1/../../../../arm-none-eabi/lib/thumb/v7e-m+dp/hard/libcr_c.a(_deferredlazyseek.o)
                0x0000000060006754                _deferredlazyseek
 .text.__flsbuf
                0x0000000060006794      0x140 /usr/local/mcuxpressoide-11.1.0_3209/ide/plugins/com.nxp.mcuxpresso.tools.linux_11.1.0.201909161352/tools/bin/../lib/gcc/arm-none-eabi/8.3.1/../../../../arm-none-eabi/lib/thumb/v7e-m+dp/hard/libcr_c.a(_deferredlazyseek.o)
                0x0000000060006794                __flsbuf
 .text._fdopen  0x00000000600068d4       0x68 /usr/local/mcuxpressoide-11.1.0_3209/ide/plugins/com.nxp.mcuxpresso.tools.linux_11.1.0.201909161352/tools/bin/../lib/gcc/arm-none-eabi/8.3.1/../../../../arm-none-eabi/lib/thumb/v7e-m+dp/hard/libcr_c.a(_fdopen.o)
                0x00000000600068d4                _fdopen
 .text._fflush  0x000000006000693c       0x52 /usr/local/mcuxpressoide-11.1.0_3209/ide/plugins/com.nxp.mcuxpresso.tools.linux_11.1.0.201909161352/tools/bin/../lib/gcc/arm-none-eabi/8.3.1/../../../../arm-none-eabi/lib/thumb/v7e-m+dp/hard/libcr_c.a(_fflush.o)
                0x000000006000693c                _fflush
 .text.fclose   0x000000006000698e       0x58 /usr/local/mcuxpressoide-11.1.0_3209/ide/plugins/com.nxp.mcuxpresso.tools.linux_11.1.0.201909161352/tools/bin/../lib/gcc/arm-none-eabi/8.3.1/../../../../arm-none-eabi/lib/thumb/v7e-m+dp/hard/libcr_c.a(fclose.o)
                0x000000006000698e                fclose
 .text.remove   0x00000000600069e6       0x14 /usr/local/mcuxpressoide-11.1.0_3209/ide/plugins/com.nxp.mcuxpresso.tools.linux_11.1.0.201909161352/tools/bin/../lib/gcc/arm-none-eabi/8.3.1/../../../../arm-none-eabi/lib/thumb/v7e-m+dp/hard/libcr_c.a(remove.o)
                0x00000000600069e6                remove
 .text._do_fflush
                0x00000000600069fa       0x40 /usr/local/mcuxpressoide-11.1.0_3209/ide/plugins/com.nxp.mcuxpresso.tools.linux_11.1.0.201909161352/tools/bin/../lib/gcc/arm-none-eabi/8.3.1/../../../../arm-none-eabi/lib/thumb/v7e-m+dp/hard/libcr_c.a(_do_fflush.o)
                0x00000000600069fa                _do_fflush
 .text.__aeabi_division_uldivmod
                0x0000000060006a3a      0x174 /usr/local/mcuxpressoide-11.1.0_3209/ide/plugins/com.nxp.mcuxpresso.tools.linux_11.1.0.201909161352/tools/bin/../lib/gcc/arm-none-eabi/8.3.1/thumb/v7e-m+dp/hard/libcr_eabihelpers.a(division_64.o)
                0x0000000060006a3a                __aeabi_uldivmod
                0x0000000060006a3e                __bhs_ldivmod1
 .text.__aeabi_division_idiv0
                0x0000000060006bae        0x2 /usr/local/mcuxpressoide-11.1.0_3209/ide/plugins/com.nxp.mcuxpresso.tools.linux_11.1.0.201909161352/tools/bin/../lib/gcc/arm-none-eabi/8.3.1/thumb/v7e-m+dp/hard/libcr_eabihelpers.a(division_idiv0.o)
                0x0000000060006bae                __aeabi_idiv0
 .text.__aeabi_memset_lowlevel
                0x0000000060006bb0       0x32 /usr/local/mcuxpressoide-11.1.0_3209/ide/plugins/com.nxp.mcuxpresso.tools.linux_11.1.0.201909161352/tools/bin/../lib/gcc/arm-none-eabi/8.3.1/thumb/v7e-m+dp/hard/libcr_eabihelpers.a(memcpy.o)
                0x0000000060006bb0                __aeabi_lowlevel_memset
 .text.__sys_close
                0x0000000060006be2        0xc /usr/local/mcuxpressoide-11.1.0_3209/ide/plugins/com.nxp.mcuxpresso.tools.linux_11.1.0.201909161352/tools/bin/../lib/gcc/arm-none-eabi/8.3.1/../../../../arm-none-eabi/lib/thumb/v7e-m+dp/hard/libcr_semihost_nf.a(__sys_close.o)
                0x0000000060006be2                __sys_close
 .text.__sys_flen
                0x0000000060006bee        0xc /usr/local/mcuxpressoide-11.1.0_3209/ide/plugins/com.nxp.mcuxpresso.tools.linux_11.1.0.201909161352/tools/bin/../lib/gcc/arm-none-eabi/8.3.1/../../../../arm-none-eabi/lib/thumb/v7e-m+dp/hard/libcr_semihost_nf.a(__sys_flen.o)
                0x0000000060006bee                __sys_flen
 .text.__sys_istty
                0x0000000060006bfa        0xc /usr/local/mcuxpressoide-11.1.0_3209/ide/plugins/com.nxp.mcuxpresso.tools.linux_11.1.0.201909161352/tools/bin/../lib/gcc/arm-none-eabi/8.3.1/../../../../arm-none-eabi/lib/thumb/v7e-m+dp/hard/libcr_semihost_nf.a(__sys_istty.o)
                0x0000000060006bfa                __sys_istty
 .text.__sys_remove
                0x0000000060006c06        0xc /usr/local/mcuxpressoide-11.1.0_3209/ide/plugins/com.nxp.mcuxpresso.tools.linux_11.1.0.201909161352/tools/bin/../lib/gcc/arm-none-eabi/8.3.1/../../../../arm-none-eabi/lib/thumb/v7e-m+dp/hard/libcr_semihost_nf.a(__sys_remove.o)
                0x0000000060006c06                __sys_remove
 .text.__sys_seek
                0x0000000060006c12        0xc /usr/local/mcuxpressoide-11.1.0_3209/ide/plugins/com.nxp.mcuxpresso.tools.linux_11.1.0.201909161352/tools/bin/../lib/gcc/arm-none-eabi/8.3.1/../../../../arm-none-eabi/lib/thumb/v7e-m+dp/hard/libcr_semihost_nf.a(__sys_seek.o)
                0x0000000060006c12                __sys_seek
 .text.__sys_tmpnam
                0x0000000060006c1e        0xc /usr/local/mcuxpressoide-11.1.0_3209/ide/plugins/com.nxp.mcuxpresso.tools.linux_11.1.0.201909161352/tools/bin/../lib/gcc/arm-none-eabi/8.3.1/../../../../arm-none-eabi/lib/thumb/v7e-m+dp/hard/libcr_semihost_nf.a(__sys_tmpnam.o)
                0x0000000060006c1e                __sys_tmpnam
 .text.__sys_write
                0x0000000060006c2a        0xc /usr/local/mcuxpressoide-11.1.0_3209/ide/plugins/com.nxp.mcuxpresso.tools.linux_11.1.0.201909161352/tools/bin/../lib/gcc/arm-none-eabi/8.3.1/../../../../arm-none-eabi/lib/thumb/v7e-m+dp/hard/libcr_semihost_nf.a(__sys_write.o)
                0x0000000060006c2a                __sys_write
 *(SORT_BY_ALIGNMENT(.rodata) SORT_BY_ALIGNMENT(.rodata.*) SORT_BY_ALIGNMENT(.constdata) SORT_BY_ALIGNMENT(.constdata.*))
 *fill*         0x0000000060006c36        0x2 ff
 .rodata.__assertion_failed.str1.4
                0x0000000060006c38       0x14 ./utilities/fsl_assert.o
 .rodata.main.str1.4
                0x0000000060006c4c       0xc1 ./source/qtmr_inputcapture_outputpwm.o
 *fill*         0x0000000060006d0d        0x3 ff
 .rodata.CLOCK_InitExternalClk.str1.4
                0x0000000060006d10       0x22 ./drivers/fsl_clock.o
 *fill*         0x0000000060006d32        0x2 ff
 .rodata.CLOCK_GetPllFreq.str1.4
                0x0000000060006d34       0x35 ./drivers/fsl_clock.o
 *fill*         0x0000000060006d69        0x3 ff
 .rodata        0x0000000060006d6c       0x10 ./drivers/fsl_clock.o
 .rodata.CLOCK_ControlGate.str1.4
                0x0000000060006d7c       0x20 ./drivers/fsl_lpspi.o
 .rodata.s_baudratePrescaler
                0x0000000060006d9c        0x8 ./drivers/fsl_lpspi.o
 .rodata.s_lpspiBases
                0x0000000060006da4       0x14 ./drivers/fsl_lpspi.o
 .rodata.s_lpspiClocks
                0x0000000060006db8        0xa ./drivers/fsl_lpspi.o
 *fill*         0x0000000060006dc2        0x2 ff
 .rodata.LPSPI_GetInstance.str1.4
                0x0000000060006dc4       0x37 ./drivers/fsl_lpspi.o
 *fill*         0x0000000060006dfb        0x1 ff
 .rodata.LPSPI_MasterInit.str1.4
                0x0000000060006dfc       0x20 ./drivers/fsl_lpspi.o
 .rodata.LPSPI_MasterSetBaudRate.str1.4
                0x0000000060006e1c       0x24 ./drivers/fsl_lpspi.o
 .rodata.LPSPI_MasterSetDelayScaler.str1.4
                0x0000000060006e40       0x19 ./drivers/fsl_lpspi.o
 *fill*         0x0000000060006e59        0x3 ff
 .rodata.LPSPI1_DriverIRQHandler.str1.4
                0x0000000060006e5c       0x25 ./drivers/fsl_lpspi.o
 *fill*         0x0000000060006e81        0x3 ff
 .rodata.LPSPI2_DriverIRQHandler.str1.4
                0x0000000060006e84       0x25 ./drivers/fsl_lpspi.o
 *fill*         0x0000000060006ea9        0x3 ff
 .rodata.LPSPI3_DriverIRQHandler.str1.4
                0x0000000060006eac       0x25 ./drivers/fsl_lpspi.o
 *fill*         0x0000000060006ed1        0x3 ff
 .rodata.LPSPI4_DriverIRQHandler.str1.4
                0x0000000060006ed4       0x25 ./drivers/fsl_lpspi.o
 .rodata.CLOCK_ControlGate.str1.4
                0x0000000060006ef9       0x20 ./drivers/fsl_qtmr.o
 *fill*         0x0000000060006ef9        0x3 ff
 .rodata.s_qtmrBases
                0x0000000060006efc        0xc ./drivers/fsl_qtmr.o
 .rodata.s_qtmrClocks
                0x0000000060006f08        0x6 ./drivers/fsl_qtmr.o
 *fill*         0x0000000060006f0e        0x2 ff
 .rodata.QTMR_GetInstance.str1.4
                0x0000000060006f10       0x34 ./drivers/fsl_qtmr.o
 .rodata.QTMR_Init.str1.4
                0x0000000060006f44       0x20 ./drivers/fsl_qtmr.o
 .rodata.QTMR_GetDefaultConfig.str1.4
                0x0000000060006f64       0x21 ./drivers/fsl_qtmr.o
 .rodata.CLOCK_ControlGate.str1.4
                0x0000000060006f85       0x20 ./drivers/fsl_xbara.o
 *fill*         0x0000000060006f85        0x3 ff
 .rodata.XBARA_GetInstance.str1.4
                0x0000000060006f88       0x36 ./drivers/fsl_xbara.o
 *fill*         0x0000000060006fbe        0x2 ff
 .rodata.XBARA_SetOutputSignalConfig.str1.4
                0x0000000060006fc0       0x4d ./drivers/fsl_xbara.o
 *fill*         0x000000006000700d        0x3 ff
 .rodata.BOARD_ConfigMPU.str1.4
                0x0000000060007010       0x6a ./board/board.o
 *fill*         0x000000006000707a        0x2 ff
 .rodata.CLOCK_SetMux.str1.4
                0x000000006000707c       0x97 ./board/clock_config.o
 *fill*         0x0000000060007113        0x1 ff
 .rodata.CLOCK_SetDiv.str1.4
                0x0000000060007114       0x97 ./board/clock_config.o
 *fill*         0x00000000600071ab        0x1 ff
 .rodata.CLOCK_ControlGate.str1.4
                0x00000000600071ac       0x88 ./board/clock_config.o
                                         0x86 (size before relaxing)
 .rodata.sysPllConfig_BOARD_BootClockRUN
                0x0000000060007234       0x14 ./board/clock_config.o
                0x0000000060007234                sysPllConfig_BOARD_BootClockRUN
 .rodata.enetPllConfig_BOARD_BootClockRUN
                0x0000000060007248        0x5 ./board/clock_config.o
                0x0000000060007248                enetPllConfig_BOARD_BootClockRUN
 .rodata.CLOCK_ControlGate.str1.4
                0x000000006000724d       0x86 ./board/pin_mux.o
 *fill*         0x000000006000724d        0x3 ff
 .rodata.__num_Ciob_streams
                0x0000000060007250        0x4 /usr/local/mcuxpressoide-11.1.0_3209/ide/plugins/com.nxp.mcuxpresso.tools.linux_11.1.0.201909161352/tools/bin/../lib/gcc/arm-none-eabi/8.3.1/../../../../arm-none-eabi/lib/thumb/v7e-m+dp/hard/libcr_semihost_nf.a(__ciob.o)
                0x0000000060007250                __num_Ciob_streams
 .rodata._Csys_alloc.str1.1
                0x0000000060007254       0x18 /usr/local/mcuxpressoide-11.1.0_3209/ide/plugins/com.nxp.mcuxpresso.tools.linux_11.1.0.201909161352/tools/bin/../lib/gcc/arm-none-eabi/8.3.1/../../../../arm-none-eabi/lib/thumb/v7e-m+dp/hard/libcr_c.a(alloc.o)
 .rodata._initio.str1.1
                0x000000006000726c        0x4 /usr/local/mcuxpressoide-11.1.0_3209/ide/plugins/com.nxp.mcuxpresso.tools.linux_11.1.0.201909161352/tools/bin/../lib/gcc/arm-none-eabi/8.3.1/../../../../arm-none-eabi/lib/thumb/v7e-m+dp/hard/libcr_c.a(initio.o)
 .rodata.__vfprintf.str1.1
                0x0000000060007270       0x37 /usr/local/mcuxpressoide-11.1.0_3209/ide/plugins/com.nxp.mcuxpresso.tools.linux_11.1.0.201909161352/tools/bin/../lib/gcc/arm-none-eabi/8.3.1/../../../../arm-none-eabi/lib/thumb/v7e-m+dp/hard/libcr_c.a(printf.o)
                                         0x38 (size before relaxing)
                0x00000000600072a8                . = ALIGN (0x4)
 *fill*         0x00000000600072a7        0x1 ff

.glue_7         0x00000000600072a8        0x0
 .glue_7        0x00000000600072a8        0x0 linker stubs

.glue_7t        0x00000000600072a8        0x0
 .glue_7t       0x00000000600072a8        0x0 linker stubs

.vfp11_veneer   0x00000000600072a8        0x0
 .vfp11_veneer  0x00000000600072a8        0x0 linker stubs

.v4_bx          0x00000000600072a8        0x0
 .v4_bx         0x00000000600072a8        0x0 linker stubs

.iplt           0x00000000600072a8        0x0
 .iplt          0x00000000600072a8        0x0 ./xip/evkmimxrt1020_flexspi_nor_config.o

.rel.dyn        0x00000000600072a8        0x0
 .rel.iplt      0x00000000600072a8        0x0 ./xip/evkmimxrt1020_flexspi_nor_config.o

.ARM.extab
 *(SORT_BY_ALIGNMENT(.ARM.extab*) SORT_BY_ALIGNMENT(.gnu.linkonce.armextab.*))
                0x00000000600072a8                __exidx_start = .

.ARM.exidx
 *(SORT_BY_ALIGNMENT(.ARM.exidx*) SORT_BY_ALIGNMENT(.gnu.linkonce.armexidx.*))
                0x00000000600072a8                __exidx_end = .
                0x00000000600072a8                _etext = .

.data_RAM2      0x0000000000000000        0x0 load address 0x00000000600072a8
 FILL mask 0xff
                [!provide]                        PROVIDE (__start_data_RAM2 = .)
                [!provide]                        PROVIDE (__start_data_SRAM_ITC = .)
 *(SORT_BY_ALIGNMENT(.ramfunc.$RAM2))
 *(SORT_BY_ALIGNMENT(.ramfunc.$SRAM_ITC))
 *(SORT_BY_ALIGNMENT(.data.$RAM2))
 *(SORT_BY_ALIGNMENT(.data.$SRAM_ITC))
 *(SORT_BY_ALIGNMENT(.data.$RAM2.*))
 *(SORT_BY_ALIGNMENT(.data.$SRAM_ITC.*))
                0x0000000000000000                . = ALIGN (0x4)
                [!provide]                        PROVIDE (__end_data_RAM2 = .)
                [!provide]                        PROVIDE (__end_data_SRAM_ITC = .)

.data_RAM3      0x0000000020200000        0x0 load address 0x00000000600072a8
 FILL mask 0xff
                [!provide]                        PROVIDE (__start_data_RAM3 = .)
                [!provide]                        PROVIDE (__start_data_SRAM_OC = .)
 *(SORT_BY_ALIGNMENT(.ramfunc.$RAM3))
 *(SORT_BY_ALIGNMENT(.ramfunc.$SRAM_OC))
 *(SORT_BY_ALIGNMENT(.data.$RAM3))
 *(SORT_BY_ALIGNMENT(.data.$SRAM_OC))
 *(SORT_BY_ALIGNMENT(.data.$RAM3.*))
 *(SORT_BY_ALIGNMENT(.data.$SRAM_OC.*))
                0x0000000020200000                . = ALIGN (0x4)
                [!provide]                        PROVIDE (__end_data_RAM3 = .)
                [!provide]                        PROVIDE (__end_data_SRAM_OC = .)

.data_RAM4      0x0000000080000000        0x0 load address 0x00000000600072a8
 FILL mask 0xff
                [!provide]                        PROVIDE (__start_data_RAM4 = .)
                [!provide]                        PROVIDE (__start_data_BOARD_SDRAM = .)
 *(SORT_BY_ALIGNMENT(.ramfunc.$RAM4))
 *(SORT_BY_ALIGNMENT(.ramfunc.$BOARD_SDRAM))
 *(SORT_BY_ALIGNMENT(.data.$RAM4))
 *(SORT_BY_ALIGNMENT(.data.$BOARD_SDRAM))
 *(SORT_BY_ALIGNMENT(.data.$RAM4.*))
 *(SORT_BY_ALIGNMENT(.data.$BOARD_SDRAM.*))
                0x0000000080000000                . = ALIGN (0x4)
                [!provide]                        PROVIDE (__end_data_RAM4 = .)
                [!provide]                        PROVIDE (__end_data_BOARD_SDRAM = .)

.data_RAM5      0x0000000081e00000        0x0 load address 0x00000000600072a8
 FILL mask 0xff
                [!provide]                        PROVIDE (__start_data_RAM5 = .)
                [!provide]                        PROVIDE (__start_data_NCACHE_REGION = .)
 *(SORT_BY_ALIGNMENT(.ramfunc.$RAM5))
 *(SORT_BY_ALIGNMENT(.ramfunc.$NCACHE_REGION))
 *(SORT_BY_ALIGNMENT(.data.$RAM5))
 *(SORT_BY_ALIGNMENT(.data.$NCACHE_REGION))
 *(SORT_BY_ALIGNMENT(.data.$RAM5.*))
 *(SORT_BY_ALIGNMENT(.data.$NCACHE_REGION.*))
                0x0000000081e00000                . = ALIGN (0x4)
                [!provide]                        PROVIDE (__end_data_RAM5 = .)
                [!provide]                        PROVIDE (__end_data_NCACHE_REGION = .)

.uninit_RESERVED
                0x0000000020000000        0x0
                0x0000000020000000                _start_uninit_RESERVED = .
 *(SORT_BY_ALIGNMENT(.bss.$RESERVED*))
                0x0000000020000000                . = ALIGN (0x4)
                0x0000000020000000                _end_uninit_RESERVED = .

.data           0x0000000020000000        0x4 load address 0x00000000600072a8
 FILL mask 0xff
                0x0000000020000000                _data = .
                [!provide]                        PROVIDE (__start_data_RAM = .)
                [!provide]                        PROVIDE (__start_data_SRAM_DTC = .)
 *(SORT_BY_ALIGNMENT(vtable))
 *(SORT_BY_ALIGNMENT(.ramfunc*))
 *(SORT_BY_ALIGNMENT(CodeQuickAccess))
 *(SORT_BY_ALIGNMENT(DataQuickAccess))
 *(SORT_BY_ALIGNMENT(RamFunction))
 *(SORT_BY_ALIGNMENT(NonCacheable.init))
 *(SORT_BY_ALIGNMENT(.data*))
 .data.SystemCoreClock
                0x0000000020000000        0x4 ./device/system_MIMXRT1021.o
                0x0000000020000000                SystemCoreClock
                0x0000000020000004                . = ALIGN (0x4)
                0x0000000020000004                _edata = .
                [!provide]                        PROVIDE (__end_data_RAM = .)
                [!provide]                        PROVIDE (__end_data_SRAM_DTC = .)

.igot.plt       0x0000000020000004        0x0 load address 0x00000000600072ac
 .igot.plt      0x0000000020000004        0x0 ./xip/evkmimxrt1020_flexspi_nor_config.o

.bss_RAM2       0x0000000000000000        0x0
                [!provide]                        PROVIDE (__start_bss_RAM2 = .)
                [!provide]                        PROVIDE (__start_bss_SRAM_ITC = .)
 *(SORT_BY_ALIGNMENT(.bss.$RAM2))
 *(SORT_BY_ALIGNMENT(.bss.$SRAM_ITC))
 *(SORT_BY_ALIGNMENT(.bss.$RAM2.*))
 *(SORT_BY_ALIGNMENT(.bss.$SRAM_ITC.*))
                0x0000000000000000                . = ALIGN ((. != 0x0)?0x4:0x1)
                [!provide]                        PROVIDE (__end_bss_RAM2 = .)
                [!provide]                        PROVIDE (__end_bss_SRAM_ITC = .)

.bss_RAM3       0x0000000020200000        0x0
                [!provide]                        PROVIDE (__start_bss_RAM3 = .)
                [!provide]                        PROVIDE (__start_bss_SRAM_OC = .)
 *(SORT_BY_ALIGNMENT(.bss.$RAM3))
 *(SORT_BY_ALIGNMENT(.bss.$SRAM_OC))
 *(SORT_BY_ALIGNMENT(.bss.$RAM3.*))
 *(SORT_BY_ALIGNMENT(.bss.$SRAM_OC.*))
                0x0000000020200000                . = ALIGN ((. != 0x0)?0x4:0x1)
                [!provide]                        PROVIDE (__end_bss_RAM3 = .)
                [!provide]                        PROVIDE (__end_bss_SRAM_OC = .)

.bss_RAM4       0x0000000080000000        0x0
                [!provide]                        PROVIDE (__start_bss_RAM4 = .)
                [!provide]                        PROVIDE (__start_bss_BOARD_SDRAM = .)
 *(SORT_BY_ALIGNMENT(.bss.$RAM4))
 *(SORT_BY_ALIGNMENT(.bss.$BOARD_SDRAM))
 *(SORT_BY_ALIGNMENT(.bss.$RAM4.*))
 *(SORT_BY_ALIGNMENT(.bss.$BOARD_SDRAM.*))
                0x0000000080000000                . = ALIGN ((. != 0x0)?0x4:0x1)
                [!provide]                        PROVIDE (__end_bss_RAM4 = .)
                [!provide]                        PROVIDE (__end_bss_BOARD_SDRAM = .)

.bss_RAM5       0x0000000081e00000        0x0
                [!provide]                        PROVIDE (__start_bss_RAM5 = .)
                [!provide]                        PROVIDE (__start_bss_NCACHE_REGION = .)
 *(SORT_BY_ALIGNMENT(.bss.$RAM5))
 *(SORT_BY_ALIGNMENT(.bss.$NCACHE_REGION))
 *(SORT_BY_ALIGNMENT(.bss.$RAM5.*))
 *(SORT_BY_ALIGNMENT(.bss.$NCACHE_REGION.*))
                0x0000000081e00000                . = ALIGN ((. != 0x0)?0x4:0x1)
                [!provide]                        PROVIDE (__end_bss_RAM5 = .)
                [!provide]                        PROVIDE (__end_bss_NCACHE_REGION = .)

.bss            0x0000000020000004      0x118
                0x0000000020000004                _bss = .
                [!provide]                        PROVIDE (__start_bss_RAM = .)
                [!provide]                        PROVIDE (__start_bss_SRAM_DTC = .)
 *(SORT_BY_ALIGNMENT(NonCacheable))
 *(SORT_BY_ALIGNMENT(.bss*))
 .bss.g_xtalFreq
                0x0000000020000004        0x4 ./drivers/fsl_clock.o
                0x0000000020000004                g_xtalFreq
 .bss.g_rtcXtalFreq
                0x0000000020000008        0x4 ./drivers/fsl_clock.o
                0x0000000020000008                g_rtcXtalFreq
 .bss.s_lpspiHandle
                0x000000002000000c       0x14 ./drivers/fsl_lpspi.o
 .bss.s_lpspiMasterIsr
                0x0000000020000020        0x4 ./drivers/fsl_lpspi.o
 .bss.s_lpspiSlaveIsr
                0x0000000020000024        0x4 ./drivers/fsl_lpspi.o
 .bss.g_lpspiDummyData
                0x0000000020000028        0x5 ./drivers/fsl_lpspi.o
                0x0000000020000028                g_lpspiDummyData
 *fill*         0x000000002000002d        0x3 
 .bss.s_lpuartHandle
                0x0000000020000030       0x24 ./drivers/fsl_lpuart.o
 .bss.s_lpuartIsr
                0x0000000020000054        0x4 ./drivers/fsl_lpuart.o
 .bss.__end_of_heap
                0x0000000020000058        0x4 /usr/local/mcuxpressoide-11.1.0_3209/ide/plugins/com.nxp.mcuxpresso.tools.linux_11.1.0.201909161352/tools/bin/../lib/gcc/arm-none-eabi/8.3.1/../../../../arm-none-eabi/lib/thumb/v7e-m+dp/hard/libcr_c.a(__init_alloc.o)
                0x0000000020000058                __end_of_heap
 .bss.__heaps   0x000000002000005c        0x4 /usr/local/mcuxpressoide-11.1.0_3209/ide/plugins/com.nxp.mcuxpresso.tools.linux_11.1.0.201909161352/tools/bin/../lib/gcc/arm-none-eabi/8.3.1/../../../../arm-none-eabi/lib/thumb/v7e-m+dp/hard/libcr_c.a(__init_alloc.o)
                0x000000002000005c                __heaps
 .bss.errno     0x0000000020000060        0x4 /usr/local/mcuxpressoide-11.1.0_3209/ide/plugins/com.nxp.mcuxpresso.tools.linux_11.1.0.201909161352/tools/bin/../lib/gcc/arm-none-eabi/8.3.1/../../../../arm-none-eabi/lib/thumb/v7e-m+dp/hard/libcr_c.a(errno.o)
                0x0000000020000060                errno
 .bss.__Ciob    0x0000000020000064       0xb4 /usr/local/mcuxpressoide-11.1.0_3209/ide/plugins/com.nxp.mcuxpresso.tools.linux_11.1.0.201909161352/tools/bin/../lib/gcc/arm-none-eabi/8.3.1/../../../../arm-none-eabi/lib/thumb/v7e-m+dp/hard/libcr_semihost_nf.a(__ciob.o)
                0x0000000020000064                __Ciob
 .bss.qtmrIsrFlag
                0x0000000020000118        0x1 ./source/qtmr_inputcapture_outputpwm.o
                0x0000000020000118                qtmrIsrFlag
 *(SORT_BY_ALIGNMENT(COMMON))
                0x000000002000011c                . = ALIGN (0x4)
 *fill*         0x0000000020000119        0x3 
                0x000000002000011c                _ebss = .
                [!provide]                        PROVIDE (__end_bss_RAM = .)
                [!provide]                        PROVIDE (__end_bss_SRAM_DTC = .)
                [!provide]                        PROVIDE (end = .)

.noinit_RAM2    0x0000000000000000        0x0
                [!provide]                        PROVIDE (__start_noinit_RAM2 = .)
                [!provide]                        PROVIDE (__start_noinit_SRAM_ITC = .)
 *(SORT_BY_ALIGNMENT(.noinit.$RAM2))
 *(SORT_BY_ALIGNMENT(.noinit.$SRAM_ITC))
 *(SORT_BY_ALIGNMENT(.noinit.$RAM2.*))
 *(SORT_BY_ALIGNMENT(.noinit.$SRAM_ITC.*))
                0x0000000000000000                . = ALIGN (0x4)
                [!provide]                        PROVIDE (__end_noinit_RAM2 = .)
                [!provide]                        PROVIDE (__end_noinit_SRAM_ITC = .)

.noinit_RAM3    0x0000000020200000        0x0
                [!provide]                        PROVIDE (__start_noinit_RAM3 = .)
                [!provide]                        PROVIDE (__start_noinit_SRAM_OC = .)
 *(SORT_BY_ALIGNMENT(.noinit.$RAM3))
 *(SORT_BY_ALIGNMENT(.noinit.$SRAM_OC))
 *(SORT_BY_ALIGNMENT(.noinit.$RAM3.*))
 *(SORT_BY_ALIGNMENT(.noinit.$SRAM_OC.*))
                0x0000000020200000                . = ALIGN (0x4)
                [!provide]                        PROVIDE (__end_noinit_RAM3 = .)
                [!provide]                        PROVIDE (__end_noinit_SRAM_OC = .)

.noinit_RAM4    0x0000000080000000        0x0
                [!provide]                        PROVIDE (__start_noinit_RAM4 = .)
                [!provide]                        PROVIDE (__start_noinit_BOARD_SDRAM = .)
 *(SORT_BY_ALIGNMENT(.noinit.$RAM4))
 *(SORT_BY_ALIGNMENT(.noinit.$BOARD_SDRAM))
 *(SORT_BY_ALIGNMENT(.noinit.$RAM4.*))
 *(SORT_BY_ALIGNMENT(.noinit.$BOARD_SDRAM.*))
                0x0000000080000000                . = ALIGN (0x4)
                [!provide]                        PROVIDE (__end_noinit_RAM4 = .)
                [!provide]                        PROVIDE (__end_noinit_BOARD_SDRAM = .)

.noinit_RAM5    0x0000000081e00000        0x0
                [!provide]                        PROVIDE (__start_noinit_RAM5 = .)
                [!provide]                        PROVIDE (__start_noinit_NCACHE_REGION = .)
 *(SORT_BY_ALIGNMENT(.noinit.$RAM5))
 *(SORT_BY_ALIGNMENT(.noinit.$NCACHE_REGION))
 *(SORT_BY_ALIGNMENT(.noinit.$RAM5.*))
 *(SORT_BY_ALIGNMENT(.noinit.$NCACHE_REGION.*))
                0x0000000081e00000                . = ALIGN (0x4)
                [!provide]                        PROVIDE (__end_noinit_RAM5 = .)
                [!provide]                        PROVIDE (__end_noinit_NCACHE_REGION = .)

.noinit         0x000000002000011c        0x0
                0x000000002000011c                _noinit = .
                [!provide]                        PROVIDE (__start_noinit_RAM = .)
                [!provide]                        PROVIDE (__start_noinit_SRAM_DTC = .)
 *(SORT_BY_ALIGNMENT(.noinit*))
                0x000000002000011c                . = ALIGN (0x4)
                0x000000002000011c                _end_noinit = .
                [!provide]                        PROVIDE (__end_noinit_RAM = .)
                [!provide]                        PROVIDE (__end_noinit_SRAM_DTC = .)
                0x0000000000001000                _HeapSize = 0x1000

.heap           0x000000002000011c     0x1000
                0x000000002000011c                _pvHeapStart = .
                0x000000002000111c                . = (. + _HeapSize)
 *fill*         0x000000002000011c     0x1000 
                0x000000002000111c                . = ALIGN (0x4)
                0x000000002000111c                _pvHeapLimit = .
                0x0000000000001000                _StackSize = 0x1000

.heap2stackfill
                0x000000002000111c     0x1000
                0x000000002000211c                . = (. + _StackSize)
 *fill*         0x000000002000111c     0x1000 

.stack          0x000000002000f000        0x0
                0x000000002000f000                _vStackBase = .
                0x000000002000f000                . = ALIGN (0x4)
                0x0000000020010000                _vStackTop = (. + _StackSize)
                0x0000000060002000                _image_start = LOADADDR (.text)
                0x00000000600072ac                _image_end = (LOADADDR (.data) + SIZEOF (.data))
                0x00000000000052ac                _image_size = (_image_end - _image_start)
OUTPUT(evkmimxrt1020_qtmr_inputcapture_outputpwm.axf elf32-littlearm)

.debug_info     0x0000000000000000    0x11007
 .debug_info    0x0000000000000000      0x7e9 ./xip/evkmimxrt1020_flexspi_nor_config.o
 .debug_info    0x00000000000007e9      0x5d7 ./xip/fsl_flexspi_nor_boot.o
 .debug_info    0x0000000000000dc0      0x260 ./utilities/fsl_assert.o
 .debug_info    0x0000000000001020      0xcb5 ./startup/startup_mimxrt1021.o
 .debug_info    0x0000000000001cd5     0x230d ./source/qtmr_inputcapture_outputpwm.o
 .debug_info    0x0000000000003fe2       0x3c ./source/semihost_hardfault.o
 .debug_info    0x000000000000401e     0x1b12 ./drivers/fsl_clock.o
 .debug_info    0x0000000000005b30     0x2936 ./drivers/fsl_lpspi.o
 .debug_info    0x0000000000008466     0x20f3 ./drivers/fsl_lpuart.o
 .debug_info    0x000000000000a559     0x1273 ./drivers/fsl_qtmr.o
 .debug_info    0x000000000000b7cc     0x186f ./drivers/fsl_xbara.o
 .debug_info    0x000000000000d03b      0xc9e ./device/system_MIMXRT1021.o
 .debug_info    0x000000000000dcd9     0x135f ./board/board.o
 .debug_info    0x000000000000f038     0x16ac ./board/clock_config.o
 .debug_info    0x00000000000106e4      0x923 ./board/pin_mux.o

.debug_abbrev   0x0000000000000000     0x1f4e
 .debug_abbrev  0x0000000000000000      0x14c ./xip/evkmimxrt1020_flexspi_nor_config.o
 .debug_abbrev  0x000000000000014c      0x13f ./xip/fsl_flexspi_nor_boot.o
 .debug_abbrev  0x000000000000028b       0xe9 ./utilities/fsl_assert.o
 .debug_abbrev  0x0000000000000374      0x147 ./startup/startup_mimxrt1021.o
 .debug_abbrev  0x00000000000004bb      0x29e ./source/qtmr_inputcapture_outputpwm.o
 .debug_abbrev  0x0000000000000759       0x31 ./source/semihost_hardfault.o
 .debug_abbrev  0x000000000000078a      0x38b ./drivers/fsl_clock.o
 .debug_abbrev  0x0000000000000b15      0x34e ./drivers/fsl_lpspi.o
 .debug_abbrev  0x0000000000000e63      0x364 ./drivers/fsl_lpuart.o
 .debug_abbrev  0x00000000000011c7      0x27d ./drivers/fsl_qtmr.o
 .debug_abbrev  0x0000000000001444      0x24c ./drivers/fsl_xbara.o
 .debug_abbrev  0x0000000000001690      0x1c7 ./device/system_MIMXRT1021.o
 .debug_abbrev  0x0000000000001857      0x357 ./board/board.o
 .debug_abbrev  0x0000000000001bae      0x218 ./board/clock_config.o
 .debug_abbrev  0x0000000000001dc6      0x188 ./board/pin_mux.o

.debug_aranges  0x0000000000000000      0xc70
 .debug_aranges
                0x0000000000000000       0x18 ./xip/evkmimxrt1020_flexspi_nor_config.o
 .debug_aranges
                0x0000000000000018       0x18 ./xip/fsl_flexspi_nor_boot.o
 .debug_aranges
                0x0000000000000030       0x20 ./utilities/fsl_assert.o
 .debug_aranges
                0x0000000000000050      0x4d0 ./startup/startup_mimxrt1021.o
 .debug_aranges
                0x0000000000000520       0x70 ./source/qtmr_inputcapture_outputpwm.o
 .debug_aranges
                0x0000000000000590       0x20 ./source/semihost_hardfault.o
 .debug_aranges
                0x00000000000005b0      0x128 ./drivers/fsl_clock.o
 .debug_aranges
                0x00000000000006d8      0x1c8 ./drivers/fsl_lpspi.o
 .debug_aranges
                0x00000000000008a0      0x160 ./drivers/fsl_lpuart.o
 .debug_aranges
                0x0000000000000a00       0xa0 ./drivers/fsl_qtmr.o
 .debug_aranges
                0x0000000000000aa0       0x68 ./drivers/fsl_xbara.o
 .debug_aranges
                0x0000000000000b08       0x30 ./device/system_MIMXRT1021.o
 .debug_aranges
                0x0000000000000b38       0x78 ./board/board.o
 .debug_aranges
                0x0000000000000bb0       0x78 ./board/clock_config.o
 .debug_aranges
                0x0000000000000c28       0x48 ./board/pin_mux.o

.debug_macro    0x0000000000000000    0x25b4e
 .debug_macro   0x0000000000000000      0x118 ./xip/evkmimxrt1020_flexspi_nor_config.o
 .debug_macro   0x0000000000000118      0xafc ./xip/evkmimxrt1020_flexspi_nor_config.o
 .debug_macro   0x0000000000000c14       0x10 ./xip/evkmimxrt1020_flexspi_nor_config.o
 .debug_macro   0x0000000000000c24      0x12e ./xip/evkmimxrt1020_flexspi_nor_config.o
 .debug_macro   0x0000000000000d52      0x5b3 ./xip/evkmimxrt1020_flexspi_nor_config.o
 .debug_macro   0x0000000000001305       0x22 ./xip/evkmimxrt1020_flexspi_nor_config.o
 .debug_macro   0x0000000000001327       0x16 ./xip/evkmimxrt1020_flexspi_nor_config.o
 .debug_macro   0x000000000000133d       0x22 ./xip/evkmimxrt1020_flexspi_nor_config.o
 .debug_macro   0x000000000000135f       0x10 ./xip/evkmimxrt1020_flexspi_nor_config.o
 .debug_macro   0x000000000000136f       0x4d ./xip/evkmimxrt1020_flexspi_nor_config.o
 .debug_macro   0x00000000000013bc       0x1c ./xip/evkmimxrt1020_flexspi_nor_config.o
 .debug_macro   0x00000000000013d8       0x22 ./xip/evkmimxrt1020_flexspi_nor_config.o
 .debug_macro   0x00000000000013fa       0xd8 ./xip/evkmimxrt1020_flexspi_nor_config.o
 .debug_macro   0x00000000000014d2     0x1305 ./xip/evkmimxrt1020_flexspi_nor_config.o
 .debug_macro   0x00000000000027d7      0x11f ./xip/evkmimxrt1020_flexspi_nor_config.o
 .debug_macro   0x00000000000028f6       0x20 ./xip/evkmimxrt1020_flexspi_nor_config.o
 .debug_macro   0x0000000000002916       0x1c ./xip/evkmimxrt1020_flexspi_nor_config.o
 .debug_macro   0x0000000000002932    0x1ffc2 ./xip/evkmimxrt1020_flexspi_nor_config.o
 .debug_macro   0x00000000000228f4      0x678 ./xip/evkmimxrt1020_flexspi_nor_config.o
 .debug_macro   0x0000000000022f6c       0xd7 ./xip/evkmimxrt1020_flexspi_nor_config.o
 .debug_macro   0x0000000000023043      0x1fb ./xip/evkmimxrt1020_flexspi_nor_config.o
 .debug_macro   0x000000000002323e      0x1a4 ./xip/evkmimxrt1020_flexspi_nor_config.o
 .debug_macro   0x00000000000233e2      0x13f ./xip/fsl_flexspi_nor_boot.o
 .debug_macro   0x0000000000023521      0x106 ./xip/fsl_flexspi_nor_boot.o
 .debug_macro   0x0000000000023627       0x10 ./xip/fsl_flexspi_nor_boot.o
 .debug_macro   0x0000000000023637      0x23d ./xip/fsl_flexspi_nor_boot.o
 .debug_macro   0x0000000000023874       0x7c ./xip/fsl_flexspi_nor_boot.o
 .debug_macro   0x00000000000238f0      0x14b ./utilities/fsl_assert.o
 .debug_macro   0x0000000000023a3b       0x1c ./utilities/fsl_assert.o
 .debug_macro   0x0000000000023a57       0x2e ./utilities/fsl_assert.o
 .debug_macro   0x0000000000023a85       0x28 ./utilities/fsl_assert.o
 .debug_macro   0x0000000000023aad       0x32 ./utilities/fsl_assert.o
 .debug_macro   0x0000000000023adf       0x16 ./utilities/fsl_assert.o
 .debug_macro   0x0000000000023af5       0xd2 ./utilities/fsl_assert.o
 .debug_macro   0x0000000000023bc7       0x1c ./utilities/fsl_assert.o
 .debug_macro   0x0000000000023be3       0x29 ./startup/startup_mimxrt1021.o
 .debug_macro   0x0000000000023c0c      0x213 ./source/qtmr_inputcapture_outputpwm.o
 .debug_macro   0x0000000000023e1f      0x10c ./source/qtmr_inputcapture_outputpwm.o
 .debug_macro   0x0000000000023f2b       0x10 ./source/qtmr_inputcapture_outputpwm.o
 .debug_macro   0x0000000000023f3b       0x1c ./source/qtmr_inputcapture_outputpwm.o
 .debug_macro   0x0000000000023f57       0x32 ./source/qtmr_inputcapture_outputpwm.o
 .debug_macro   0x0000000000023f89       0x11 ./source/semihost_hardfault.o
 .debug_macro   0x0000000000023f9a      0x103 ./drivers/fsl_clock.o
 .debug_macro   0x000000000002409d      0x112 ./drivers/fsl_lpspi.o
 .debug_macro   0x00000000000241af       0x2c ./drivers/fsl_lpspi.o
 .debug_macro   0x00000000000241db      0x113 ./drivers/fsl_lpuart.o
 .debug_macro   0x00000000000242ee      0x113 ./drivers/fsl_qtmr.o
 .debug_macro   0x0000000000024401      0x118 ./drivers/fsl_xbara.o
 .debug_macro   0x0000000000024519       0x16 ./drivers/fsl_xbara.o
 .debug_macro   0x000000000002452f       0xa7 ./device/system_MIMXRT1021.o
 .debug_macro   0x00000000000245d6      0x175 ./board/board.o
 .debug_macro   0x000000000002474b     0x11de ./board/board.o
 .debug_macro   0x0000000000025929      0x115 ./board/clock_config.o
 .debug_macro   0x0000000000025a3e      0x110 ./board/pin_mux.o

.debug_line     0x0000000000000000     0x80c5
 .debug_line    0x0000000000000000      0x3d7 ./xip/evkmimxrt1020_flexspi_nor_config.o
 .debug_line    0x00000000000003d7      0x44f ./xip/fsl_flexspi_nor_boot.o
 .debug_line    0x0000000000000826      0x4f8 ./utilities/fsl_assert.o
 .debug_line    0x0000000000000d1e      0xe4d ./startup/startup_mimxrt1021.o
 .debug_line    0x0000000000001b6b      0x811 ./source/qtmr_inputcapture_outputpwm.o
 .debug_line    0x000000000000237c       0x5a ./source/semihost_hardfault.o
 .debug_line    0x00000000000023d6      0xc2f ./drivers/fsl_clock.o
 .debug_line    0x0000000000003005     0x1772 ./drivers/fsl_lpspi.o
 .debug_line    0x0000000000004777     0x1207 ./drivers/fsl_lpuart.o
 .debug_line    0x000000000000597e      0x800 ./drivers/fsl_qtmr.o
 .debug_line    0x000000000000617e      0x515 ./drivers/fsl_xbara.o
 .debug_line    0x0000000000006693      0x4f1 ./device/system_MIMXRT1021.o
 .debug_line    0x0000000000006b84      0x97a ./board/board.o
 .debug_line    0x00000000000074fe      0x70a ./board/clock_config.o
 .debug_line    0x0000000000007c08      0x4bd ./board/pin_mux.o

.debug_str      0x0000000000000000   0x12ebd3
 .debug_str     0x0000000000000000   0x1179c5 ./xip/evkmimxrt1020_flexspi_nor_config.o
                                     0x117a5c (size before relaxing)
 .debug_str     0x00000000001179c5     0x1f49 ./xip/fsl_flexspi_nor_boot.o
                                     0x118ca6 (size before relaxing)
 .debug_str     0x000000000011990e      0x796 ./utilities/fsl_assert.o
                                     0x116d12 (size before relaxing)
 .debug_str     0x000000000011a0a4      0xc93 ./startup/startup_mimxrt1021.o
                                       0x3c99 (size before relaxing)
 .debug_str     0x000000000011ad37     0x3eba ./source/qtmr_inputcapture_outputpwm.o
                                     0x11d08e (size before relaxing)
 .debug_str     0x000000000011ebf1       0x1f ./source/semihost_hardfault.o
                                       0x2f66 (size before relaxing)
 .debug_str     0x000000000011ec10      0xb90 ./drivers/fsl_clock.o
                                     0x117c55 (size before relaxing)
 .debug_str     0x000000000011f7a0     0x111e ./drivers/fsl_lpspi.o
                                     0x1190ae (size before relaxing)
 .debug_str     0x00000000001208be     0x106f ./drivers/fsl_lpuart.o
                                     0x118f01 (size before relaxing)
 .debug_str     0x000000000012192d      0x43f ./drivers/fsl_qtmr.o
                                     0x117e45 (size before relaxing)
 .debug_str     0x0000000000121d6c      0x1bf ./drivers/fsl_xbara.o
                                     0x119826 (size before relaxing)
 .debug_str     0x0000000000121f2b      0x1f9 ./device/system_MIMXRT1021.o
                                     0x115299 (size before relaxing)
 .debug_str     0x0000000000122124     0xc685 ./board/board.o
                                     0x1253c2 (size before relaxing)
 .debug_str     0x000000000012e7a9      0x3d7 ./board/clock_config.o
                                     0x12487f (size before relaxing)
 .debug_str     0x000000000012eb80       0x53 ./board/pin_mux.o
                                     0x122e89 (size before relaxing)

.comment        0x0000000000000000       0x76
 .comment       0x0000000000000000       0x76 ./xip/evkmimxrt1020_flexspi_nor_config.o
                                         0x77 (size before relaxing)
 .comment       0x0000000000000076       0x77 ./xip/fsl_flexspi_nor_boot.o
 .comment       0x0000000000000076       0x77 ./utilities/fsl_assert.o
 .comment       0x0000000000000076       0x77 ./startup/startup_mimxrt1021.o
 .comment       0x0000000000000076       0x77 ./source/qtmr_inputcapture_outputpwm.o
 .comment       0x0000000000000076       0x77 ./source/semihost_hardfault.o
 .comment       0x0000000000000076       0x77 ./drivers/fsl_clock.o
 .comment       0x0000000000000076       0x77 ./drivers/fsl_lpspi.o
 .comment       0x0000000000000076       0x77 ./drivers/fsl_lpuart.o
 .comment       0x0000000000000076       0x77 ./drivers/fsl_qtmr.o
 .comment       0x0000000000000076       0x77 ./drivers/fsl_xbara.o
 .comment       0x0000000000000076       0x77 ./device/system_MIMXRT1021.o
 .comment       0x0000000000000076       0x77 ./board/board.o
 .comment       0x0000000000000076       0x77 ./board/clock_config.o
 .comment       0x0000000000000076       0x77 ./board/pin_mux.o
 .comment       0x0000000000000076       0x77 /usr/local/mcuxpressoide-11.1.0_3209/ide/plugins/com.nxp.mcuxpresso.tools.linux_11.1.0.201909161352/tools/bin/../lib/gcc/arm-none-eabi/8.3.1/../../../../arm-none-eabi/lib/thumb/v7e-m+dp/hard/libcr_semihost_nf.a(_cr__main.o)
 .comment       0x0000000000000076       0x77 /usr/local/mcuxpressoide-11.1.0_3209/ide/plugins/com.nxp.mcuxpresso.tools.linux_11.1.0.201909161352/tools/bin/../lib/gcc/arm-none-eabi/8.3.1/../../../../arm-none-eabi/lib/thumb/v7e-m+dp/hard/libcr_c.a(memset.o)
 .comment       0x0000000000000076       0x77 /usr/local/mcuxpressoide-11.1.0_3209/ide/plugins/com.nxp.mcuxpresso.tools.linux_11.1.0.201909161352/tools/bin/../lib/gcc/arm-none-eabi/8.3.1/../../../../arm-none-eabi/lib/thumb/v7e-m+dp/hard/libcr_c.a(alloc.o)
 .comment       0x0000000000000076       0x77 /usr/local/mcuxpressoide-11.1.0_3209/ide/plugins/com.nxp.mcuxpresso.tools.linux_11.1.0.201909161352/tools/bin/../lib/gcc/arm-none-eabi/8.3.1/../../../../arm-none-eabi/lib/thumb/v7e-m+dp/hard/libcr_c.a(initio.o)
 .comment       0x0000000000000076       0x77 /usr/local/mcuxpressoide-11.1.0_3209/ide/plugins/com.nxp.mcuxpresso.tools.linux_11.1.0.201909161352/tools/bin/../lib/gcc/arm-none-eabi/8.3.1/../../../../arm-none-eabi/lib/thumb/v7e-m+dp/hard/libcr_c.a(printf.o)
 .comment       0x0000000000000076       0x77 /usr/local/mcuxpressoide-11.1.0_3209/ide/plugins/com.nxp.mcuxpresso.tools.linux_11.1.0.201909161352/tools/bin/../lib/gcc/arm-none-eabi/8.3.1/../../../../arm-none-eabi/lib/thumb/v7e-m+dp/hard/libcr_c.a(setvbuf.o)
 .comment       0x0000000000000076       0x77 /usr/local/mcuxpressoide-11.1.0_3209/ide/plugins/com.nxp.mcuxpresso.tools.linux_11.1.0.201909161352/tools/bin/../lib/gcc/arm-none-eabi/8.3.1/../../../../arm-none-eabi/lib/thumb/v7e-m+dp/hard/libcr_c.a(strlen.o)
 .comment       0x0000000000000076       0x77 /usr/local/mcuxpressoide-11.1.0_3209/ide/plugins/com.nxp.mcuxpresso.tools.linux_11.1.0.201909161352/tools/bin/../lib/gcc/arm-none-eabi/8.3.1/../../../../arm-none-eabi/lib/thumb/v7e-m+dp/hard/libcr_c.a(__init_alloc.o)
 .comment       0x0000000000000076       0x77 /usr/local/mcuxpressoide-11.1.0_3209/ide/plugins/com.nxp.mcuxpresso.tools.linux_11.1.0.201909161352/tools/bin/../lib/gcc/arm-none-eabi/8.3.1/../../../../arm-none-eabi/lib/thumb/v7e-m+dp/hard/libcr_c.a(_cr_sbrk.o)
 .comment       0x0000000000000076       0x77 /usr/local/mcuxpressoide-11.1.0_3209/ide/plugins/com.nxp.mcuxpresso.tools.linux_11.1.0.201909161352/tools/bin/../lib/gcc/arm-none-eabi/8.3.1/../../../../arm-none-eabi/lib/thumb/v7e-m+dp/hard/libcr_c.a(_deferredlazyseek.o)
 .comment       0x0000000000000076       0x77 /usr/local/mcuxpressoide-11.1.0_3209/ide/plugins/com.nxp.mcuxpresso.tools.linux_11.1.0.201909161352/tools/bin/../lib/gcc/arm-none-eabi/8.3.1/../../../../arm-none-eabi/lib/thumb/v7e-m+dp/hard/libcr_c.a(_fdopen.o)
 .comment       0x0000000000000076       0x77 /usr/local/mcuxpressoide-11.1.0_3209/ide/plugins/com.nxp.mcuxpresso.tools.linux_11.1.0.201909161352/tools/bin/../lib/gcc/arm-none-eabi/8.3.1/../../../../arm-none-eabi/lib/thumb/v7e-m+dp/hard/libcr_c.a(_fflush.o)
 .comment       0x0000000000000076       0x77 /usr/local/mcuxpressoide-11.1.0_3209/ide/plugins/com.nxp.mcuxpresso.tools.linux_11.1.0.201909161352/tools/bin/../lib/gcc/arm-none-eabi/8.3.1/../../../../arm-none-eabi/lib/thumb/v7e-m+dp/hard/libcr_c.a(_writebuf.o)
 .comment       0x0000000000000076       0x77 /usr/local/mcuxpressoide-11.1.0_3209/ide/plugins/com.nxp.mcuxpresso.tools.linux_11.1.0.201909161352/tools/bin/../lib/gcc/arm-none-eabi/8.3.1/../../../../arm-none-eabi/lib/thumb/v7e-m+dp/hard/libcr_c.a(errno.o)
 .comment       0x0000000000000076       0x77 /usr/local/mcuxpressoide-11.1.0_3209/ide/plugins/com.nxp.mcuxpresso.tools.linux_11.1.0.201909161352/tools/bin/../lib/gcc/arm-none-eabi/8.3.1/../../../../arm-none-eabi/lib/thumb/v7e-m+dp/hard/libcr_c.a(fclose.o)
 .comment       0x0000000000000076       0x77 /usr/local/mcuxpressoide-11.1.0_3209/ide/plugins/com.nxp.mcuxpresso.tools.linux_11.1.0.201909161352/tools/bin/../lib/gcc/arm-none-eabi/8.3.1/../../../../arm-none-eabi/lib/thumb/v7e-m+dp/hard/libcr_c.a(fflush.o)
 .comment       0x0000000000000076       0x77 /usr/local/mcuxpressoide-11.1.0_3209/ide/plugins/com.nxp.mcuxpresso.tools.linux_11.1.0.201909161352/tools/bin/../lib/gcc/arm-none-eabi/8.3.1/../../../../arm-none-eabi/lib/thumb/v7e-m+dp/hard/libcr_c.a(fseek.o)
 .comment       0x0000000000000076       0x77 /usr/local/mcuxpressoide-11.1.0_3209/ide/plugins/com.nxp.mcuxpresso.tools.linux_11.1.0.201909161352/tools/bin/../lib/gcc/arm-none-eabi/8.3.1/../../../../arm-none-eabi/lib/thumb/v7e-m+dp/hard/libcr_c.a(ftell.o)
 .comment       0x0000000000000076       0x77 /usr/local/mcuxpressoide-11.1.0_3209/ide/plugins/com.nxp.mcuxpresso.tools.linux_11.1.0.201909161352/tools/bin/../lib/gcc/arm-none-eabi/8.3.1/../../../../arm-none-eabi/lib/thumb/v7e-m+dp/hard/libcr_c.a(remove.o)
 .comment       0x0000000000000076       0x77 /usr/local/mcuxpressoide-11.1.0_3209/ide/plugins/com.nxp.mcuxpresso.tools.linux_11.1.0.201909161352/tools/bin/../lib/gcc/arm-none-eabi/8.3.1/../../../../arm-none-eabi/lib/thumb/v7e-m+dp/hard/libcr_c.a(_cr_check_heap.o)
 .comment       0x0000000000000076       0x77 /usr/local/mcuxpressoide-11.1.0_3209/ide/plugins/com.nxp.mcuxpresso.tools.linux_11.1.0.201909161352/tools/bin/../lib/gcc/arm-none-eabi/8.3.1/../../../../arm-none-eabi/lib/thumb/v7e-m+dp/hard/libcr_c.a(_do_fflush.o)
 .comment       0x0000000000000076       0x77 /usr/local/mcuxpressoide-11.1.0_3209/ide/plugins/com.nxp.mcuxpresso.tools.linux_11.1.0.201909161352/tools/bin/../lib/gcc/arm-none-eabi/8.3.1/../../../../arm-none-eabi/lib/thumb/v7e-m+dp/hard/libcr_semihost_nf.a(__ciob.o)

.ARM.attributes
                0x0000000000000000       0x35
 .ARM.attributes
                0x0000000000000000       0x37 ./xip/evkmimxrt1020_flexspi_nor_config.o
 .ARM.attributes
                0x0000000000000037       0x37 ./xip/fsl_flexspi_nor_boot.o
 .ARM.attributes
                0x000000000000006e       0x32 ./utilities/fsl_assert.o
 .ARM.attributes
                0x00000000000000a0       0x32 ./startup/startup_mimxrt1021.o
 .ARM.attributes
                0x00000000000000d2       0x32 ./source/qtmr_inputcapture_outputpwm.o
 .ARM.attributes
                0x0000000000000104       0x32 ./source/semihost_hardfault.o
 .ARM.attributes
                0x0000000000000136       0x32 ./drivers/fsl_clock.o
 .ARM.attributes
                0x0000000000000168       0x32 ./drivers/fsl_lpspi.o
 .ARM.attributes
                0x000000000000019a       0x32 ./drivers/fsl_lpuart.o
 .ARM.attributes
                0x00000000000001cc       0x32 ./drivers/fsl_qtmr.o
 .ARM.attributes
                0x00000000000001fe       0x32 ./drivers/fsl_xbara.o
 .ARM.attributes
                0x0000000000000230       0x32 ./device/system_MIMXRT1021.o
 .ARM.attributes
                0x0000000000000262       0x32 ./board/board.o
 .ARM.attributes
                0x0000000000000294       0x32 ./board/clock_config.o
 .ARM.attributes
                0x00000000000002c6       0x32 ./board/pin_mux.o
 .ARM.attributes
                0x00000000000002f8       0x32 /usr/local/mcuxpressoide-11.1.0_3209/ide/plugins/com.nxp.mcuxpresso.tools.linux_11.1.0.201909161352/tools/bin/../lib/gcc/arm-none-eabi/8.3.1/../../../../arm-none-eabi/lib/thumb/v7e-m+dp/hard/libcr_semihost_nf.a(_cr__main.o)
 .ARM.attributes
                0x000000000000032a       0x32 /usr/local/mcuxpressoide-11.1.0_3209/ide/plugins/com.nxp.mcuxpresso.tools.linux_11.1.0.201909161352/tools/bin/../lib/gcc/arm-none-eabi/8.3.1/../../../../arm-none-eabi/lib/thumb/v7e-m+dp/hard/libcr_c.a(memset.o)
 .ARM.attributes
                0x000000000000035c       0x32 /usr/local/mcuxpressoide-11.1.0_3209/ide/plugins/com.nxp.mcuxpresso.tools.linux_11.1.0.201909161352/tools/bin/../lib/gcc/arm-none-eabi/8.3.1/../../../../arm-none-eabi/lib/thumb/v7e-m+dp/hard/libcr_c.a(alloc.o)
 .ARM.attributes
                0x000000000000038e       0x32 /usr/local/mcuxpressoide-11.1.0_3209/ide/plugins/com.nxp.mcuxpresso.tools.linux_11.1.0.201909161352/tools/bin/../lib/gcc/arm-none-eabi/8.3.1/../../../../arm-none-eabi/lib/thumb/v7e-m+dp/hard/libcr_c.a(initio.o)
 .ARM.attributes
                0x00000000000003c0       0x32 /usr/local/mcuxpressoide-11.1.0_3209/ide/plugins/com.nxp.mcuxpresso.tools.linux_11.1.0.201909161352/tools/bin/../lib/gcc/arm-none-eabi/8.3.1/../../../../arm-none-eabi/lib/thumb/v7e-m+dp/hard/libcr_c.a(printf.o)
 .ARM.attributes
                0x00000000000003f2       0x32 /usr/local/mcuxpressoide-11.1.0_3209/ide/plugins/com.nxp.mcuxpresso.tools.linux_11.1.0.201909161352/tools/bin/../lib/gcc/arm-none-eabi/8.3.1/../../../../arm-none-eabi/lib/thumb/v7e-m+dp/hard/libcr_c.a(setvbuf.o)
 .ARM.attributes
                0x0000000000000424       0x32 /usr/local/mcuxpressoide-11.1.0_3209/ide/plugins/com.nxp.mcuxpresso.tools.linux_11.1.0.201909161352/tools/bin/../lib/gcc/arm-none-eabi/8.3.1/../../../../arm-none-eabi/lib/thumb/v7e-m+dp/hard/libcr_c.a(strlen.o)
 .ARM.attributes
                0x0000000000000456       0x32 /usr/local/mcuxpressoide-11.1.0_3209/ide/plugins/com.nxp.mcuxpresso.tools.linux_11.1.0.201909161352/tools/bin/../lib/gcc/arm-none-eabi/8.3.1/../../../../arm-none-eabi/lib/thumb/v7e-m+dp/hard/libcr_c.a(__init_alloc.o)
 .ARM.attributes
                0x0000000000000488       0x32 /usr/local/mcuxpressoide-11.1.0_3209/ide/plugins/com.nxp.mcuxpresso.tools.linux_11.1.0.201909161352/tools/bin/../lib/gcc/arm-none-eabi/8.3.1/../../../../arm-none-eabi/lib/thumb/v7e-m+dp/hard/libcr_c.a(_cr_sbrk.o)
 .ARM.attributes
                0x00000000000004ba       0x32 /usr/local/mcuxpressoide-11.1.0_3209/ide/plugins/com.nxp.mcuxpresso.tools.linux_11.1.0.201909161352/tools/bin/../lib/gcc/arm-none-eabi/8.3.1/../../../../arm-none-eabi/lib/thumb/v7e-m+dp/hard/libcr_c.a(_deferredlazyseek.o)
 .ARM.attributes
                0x00000000000004ec       0x32 /usr/local/mcuxpressoide-11.1.0_3209/ide/plugins/com.nxp.mcuxpresso.tools.linux_11.1.0.201909161352/tools/bin/../lib/gcc/arm-none-eabi/8.3.1/../../../../arm-none-eabi/lib/thumb/v7e-m+dp/hard/libcr_c.a(_fdopen.o)
 .ARM.attributes
                0x000000000000051e       0x32 /usr/local/mcuxpressoide-11.1.0_3209/ide/plugins/com.nxp.mcuxpresso.tools.linux_11.1.0.201909161352/tools/bin/../lib/gcc/arm-none-eabi/8.3.1/../../../../arm-none-eabi/lib/thumb/v7e-m+dp/hard/libcr_c.a(_fflush.o)
 .ARM.attributes
                0x0000000000000550       0x32 /usr/local/mcuxpressoide-11.1.0_3209/ide/plugins/com.nxp.mcuxpresso.tools.linux_11.1.0.201909161352/tools/bin/../lib/gcc/arm-none-eabi/8.3.1/../../../../arm-none-eabi/lib/thumb/v7e-m+dp/hard/libcr_c.a(_writebuf.o)
 .ARM.attributes
                0x0000000000000582       0x37 /usr/local/mcuxpressoide-11.1.0_3209/ide/plugins/com.nxp.mcuxpresso.tools.linux_11.1.0.201909161352/tools/bin/../lib/gcc/arm-none-eabi/8.3.1/../../../../arm-none-eabi/lib/thumb/v7e-m+dp/hard/libcr_c.a(errno.o)
 .ARM.attributes
                0x00000000000005b9       0x32 /usr/local/mcuxpressoide-11.1.0_3209/ide/plugins/com.nxp.mcuxpresso.tools.linux_11.1.0.201909161352/tools/bin/../lib/gcc/arm-none-eabi/8.3.1/../../../../arm-none-eabi/lib/thumb/v7e-m+dp/hard/libcr_c.a(fclose.o)
 .ARM.attributes
                0x00000000000005eb       0x32 /usr/local/mcuxpressoide-11.1.0_3209/ide/plugins/com.nxp.mcuxpresso.tools.linux_11.1.0.201909161352/tools/bin/../lib/gcc/arm-none-eabi/8.3.1/../../../../arm-none-eabi/lib/thumb/v7e-m+dp/hard/libcr_c.a(fflush.o)
 .ARM.attributes
                0x000000000000061d       0x32 /usr/local/mcuxpressoide-11.1.0_3209/ide/plugins/com.nxp.mcuxpresso.tools.linux_11.1.0.201909161352/tools/bin/../lib/gcc/arm-none-eabi/8.3.1/../../../../arm-none-eabi/lib/thumb/v7e-m+dp/hard/libcr_c.a(fseek.o)
 .ARM.attributes
                0x000000000000064f       0x32 /usr/local/mcuxpressoide-11.1.0_3209/ide/plugins/com.nxp.mcuxpresso.tools.linux_11.1.0.201909161352/tools/bin/../lib/gcc/arm-none-eabi/8.3.1/../../../../arm-none-eabi/lib/thumb/v7e-m+dp/hard/libcr_c.a(ftell.o)
 .ARM.attributes
                0x0000000000000681       0x32 /usr/local/mcuxpressoide-11.1.0_3209/ide/plugins/com.nxp.mcuxpresso.tools.linux_11.1.0.201909161352/tools/bin/../lib/gcc/arm-none-eabi/8.3.1/../../../../arm-none-eabi/lib/thumb/v7e-m+dp/hard/libcr_c.a(remove.o)
 .ARM.attributes
                0x00000000000006b3       0x32 /usr/local/mcuxpressoide-11.1.0_3209/ide/plugins/com.nxp.mcuxpresso.tools.linux_11.1.0.201909161352/tools/bin/../lib/gcc/arm-none-eabi/8.3.1/../../../../arm-none-eabi/lib/thumb/v7e-m+dp/hard/libcr_c.a(_cr_check_heap.o)
 .ARM.attributes
                0x00000000000006e5       0x32 /usr/local/mcuxpressoide-11.1.0_3209/ide/plugins/com.nxp.mcuxpresso.tools.linux_11.1.0.201909161352/tools/bin/../lib/gcc/arm-none-eabi/8.3.1/../../../../arm-none-eabi/lib/thumb/v7e-m+dp/hard/libcr_c.a(_do_fflush.o)
 .ARM.attributes
                0x0000000000000717       0x1e /usr/local/mcuxpressoide-11.1.0_3209/ide/plugins/com.nxp.mcuxpresso.tools.linux_11.1.0.201909161352/tools/bin/../lib/gcc/arm-none-eabi/8.3.1/thumb/v7e-m+dp/hard/libcr_eabihelpers.a(division_64.o)
 .ARM.attributes
                0x0000000000000735       0x1e /usr/local/mcuxpressoide-11.1.0_3209/ide/plugins/com.nxp.mcuxpresso.tools.linux_11.1.0.201909161352/tools/bin/../lib/gcc/arm-none-eabi/8.3.1/thumb/v7e-m+dp/hard/libcr_eabihelpers.a(division_idiv0.o)
 .ARM.attributes
                0x0000000000000753       0x1e /usr/local/mcuxpressoide-11.1.0_3209/ide/plugins/com.nxp.mcuxpresso.tools.linux_11.1.0.201909161352/tools/bin/../lib/gcc/arm-none-eabi/8.3.1/thumb/v7e-m+dp/hard/libcr_eabihelpers.a(memcpy.o)
 .ARM.attributes
                0x0000000000000771       0x37 /usr/local/mcuxpressoide-11.1.0_3209/ide/plugins/com.nxp.mcuxpresso.tools.linux_11.1.0.201909161352/tools/bin/../lib/gcc/arm-none-eabi/8.3.1/../../../../arm-none-eabi/lib/thumb/v7e-m+dp/hard/libcr_semihost_nf.a(__ciob.o)
 .ARM.attributes
                0x00000000000007a8       0x1e /usr/local/mcuxpressoide-11.1.0_3209/ide/plugins/com.nxp.mcuxpresso.tools.linux_11.1.0.201909161352/tools/bin/../lib/gcc/arm-none-eabi/8.3.1/../../../../arm-none-eabi/lib/thumb/v7e-m+dp/hard/libcr_semihost_nf.a(__sys_appexit.o)
 .ARM.attributes
                0x00000000000007c6       0x1e /usr/local/mcuxpressoide-11.1.0_3209/ide/plugins/com.nxp.mcuxpresso.tools.linux_11.1.0.201909161352/tools/bin/../lib/gcc/arm-none-eabi/8.3.1/../../../../arm-none-eabi/lib/thumb/v7e-m+dp/hard/libcr_semihost_nf.a(__sys_close.o)
 .ARM.attributes
                0x00000000000007e4       0x1e /usr/local/mcuxpressoide-11.1.0_3209/ide/plugins/com.nxp.mcuxpresso.tools.linux_11.1.0.201909161352/tools/bin/../lib/gcc/arm-none-eabi/8.3.1/../../../../arm-none-eabi/lib/thumb/v7e-m+dp/hard/libcr_semihost_nf.a(__sys_flen.o)
 .ARM.attributes
                0x0000000000000802       0x1e /usr/local/mcuxpressoide-11.1.0_3209/ide/plugins/com.nxp.mcuxpresso.tools.linux_11.1.0.201909161352/tools/bin/../lib/gcc/arm-none-eabi/8.3.1/../../../../arm-none-eabi/lib/thumb/v7e-m+dp/hard/libcr_semihost_nf.a(__sys_istty.o)
 .ARM.attributes
                0x0000000000000820       0x1e /usr/local/mcuxpressoide-11.1.0_3209/ide/plugins/com.nxp.mcuxpresso.tools.linux_11.1.0.201909161352/tools/bin/../lib/gcc/arm-none-eabi/8.3.1/../../../../arm-none-eabi/lib/thumb/v7e-m+dp/hard/libcr_semihost_nf.a(__sys_remove.o)
 .ARM.attributes
                0x000000000000083e       0x1e /usr/local/mcuxpressoide-11.1.0_3209/ide/plugins/com.nxp.mcuxpresso.tools.linux_11.1.0.201909161352/tools/bin/../lib/gcc/arm-none-eabi/8.3.1/../../../../arm-none-eabi/lib/thumb/v7e-m+dp/hard/libcr_semihost_nf.a(__sys_seek.o)
 .ARM.attributes
                0x000000000000085c       0x1e /usr/local/mcuxpressoide-11.1.0_3209/ide/plugins/com.nxp.mcuxpresso.tools.linux_11.1.0.201909161352/tools/bin/../lib/gcc/arm-none-eabi/8.3.1/../../../../arm-none-eabi/lib/thumb/v7e-m+dp/hard/libcr_semihost_nf.a(__sys_tmpnam.o)
 .ARM.attributes
                0x000000000000087a       0x1e /usr/local/mcuxpressoide-11.1.0_3209/ide/plugins/com.nxp.mcuxpresso.tools.linux_11.1.0.201909161352/tools/bin/../lib/gcc/arm-none-eabi/8.3.1/../../../../arm-none-eabi/lib/thumb/v7e-m+dp/hard/libcr_semihost_nf.a(__sys_write.o)

.debug_ranges   0x0000000000000000      0xb88
 .debug_ranges  0x0000000000000000       0x10 ./utilities/fsl_assert.o
 .debug_ranges  0x0000000000000010      0x4c0 ./startup/startup_mimxrt1021.o
 .debug_ranges  0x00000000000004d0       0x60 ./source/qtmr_inputcapture_outputpwm.o
 .debug_ranges  0x0000000000000530       0x10 ./source/semihost_hardfault.o
 .debug_ranges  0x0000000000000540      0x118 ./drivers/fsl_clock.o
 .debug_ranges  0x0000000000000658      0x1b8 ./drivers/fsl_lpspi.o
 .debug_ranges  0x0000000000000810      0x150 ./drivers/fsl_lpuart.o
 .debug_ranges  0x0000000000000960       0x90 ./drivers/fsl_qtmr.o
 .debug_ranges  0x00000000000009f0       0x58 ./drivers/fsl_xbara.o
 .debug_ranges  0x0000000000000a48       0x20 ./device/system_MIMXRT1021.o
 .debug_ranges  0x0000000000000a68       0x80 ./board/board.o
 .debug_ranges  0x0000000000000ae8       0x68 ./board/clock_config.o
 .debug_ranges  0x0000000000000b50       0x38 ./board/pin_mux.o

.debug_frame    0x0000000000000000     0x2ba0
 .debug_frame   0x0000000000000000       0x30 ./utilities/fsl_assert.o
 .debug_frame   0x0000000000000030      0xe04 ./startup/startup_mimxrt1021.o
 .debug_frame   0x0000000000000e34      0x1a4 ./source/qtmr_inputcapture_outputpwm.o
 .debug_frame   0x0000000000000fd8       0x20 ./source/semihost_hardfault.o
 .debug_frame   0x0000000000000ff8      0x4d4 ./drivers/fsl_clock.o
 .debug_frame   0x00000000000014cc      0x7ec ./drivers/fsl_lpspi.o
 .debug_frame   0x0000000000001cb8      0x5bc ./drivers/fsl_lpuart.o
 .debug_frame   0x0000000000002274      0x29c ./drivers/fsl_qtmr.o
 .debug_frame   0x0000000000002510      0x184 ./drivers/fsl_xbara.o
 .debug_frame   0x0000000000002694       0x7c ./device/system_MIMXRT1021.o
 .debug_frame   0x0000000000002710      0x1e0 ./board/board.o
 .debug_frame   0x00000000000028f0      0x1c8 ./board/clock_config.o
 .debug_frame   0x0000000000002ab8       0xe8 ./board/pin_mux.o

Cross Reference Table

Symbol                                            File
ACMP1_DriverIRQHandler                            ./startup/startup_mimxrt1021.o
ACMP1_IRQHandler                                  ./startup/startup_mimxrt1021.o
ACMP2_DriverIRQHandler                            ./startup/startup_mimxrt1021.o
ACMP2_IRQHandler                                  ./startup/startup_mimxrt1021.o
ACMP3_DriverIRQHandler                            ./startup/startup_mimxrt1021.o
ACMP3_IRQHandler                                  ./startup/startup_mimxrt1021.o
ACMP4_DriverIRQHandler                            ./startup/startup_mimxrt1021.o
ACMP4_IRQHandler                                  ./startup/startup_mimxrt1021.o
ADC1_DriverIRQHandler                             ./startup/startup_mimxrt1021.o
ADC1_IRQHandler                                   ./startup/startup_mimxrt1021.o
ADC2_DriverIRQHandler                             ./startup/startup_mimxrt1021.o
ADC2_IRQHandler                                   ./startup/startup_mimxrt1021.o
ADC_ETC_ERROR_IRQ_DriverIRQHandler                ./startup/startup_mimxrt1021.o
ADC_ETC_ERROR_IRQ_IRQHandler                      ./startup/startup_mimxrt1021.o
ADC_ETC_IRQ0_DriverIRQHandler                     ./startup/startup_mimxrt1021.o
ADC_ETC_IRQ0_IRQHandler                           ./startup/startup_mimxrt1021.o
ADC_ETC_IRQ1_DriverIRQHandler                     ./startup/startup_mimxrt1021.o
ADC_ETC_IRQ1_IRQHandler                           ./startup/startup_mimxrt1021.o
ADC_ETC_IRQ2_DriverIRQHandler                     ./startup/startup_mimxrt1021.o
ADC_ETC_IRQ2_IRQHandler                           ./startup/startup_mimxrt1021.o
BEE_DriverIRQHandler                              ./startup/startup_mimxrt1021.o
BEE_IRQHandler                                    ./startup/startup_mimxrt1021.o
BOARD_BootClockRUN                                ./board/clock_config.o
                                                  ./source/qtmr_inputcapture_outputpwm.o
BOARD_ConfigMPU                                   ./board/board.o
                                                  ./source/qtmr_inputcapture_outputpwm.o
BOARD_DebugConsoleSrcFreq                         ./board/board.o
BOARD_InitBootClocks                              ./board/clock_config.o
BOARD_InitBootPins                                ./board/pin_mux.o
BOARD_InitDebugConsole                            ./board/board.o
                                                  ./source/qtmr_inputcapture_outputpwm.o
BOARD_InitPins                                    ./board/pin_mux.o
                                                  ./source/qtmr_inputcapture_outputpwm.o
BOARD_MMC_Pin_Config                              ./board/board.o
BOARD_SD_Pin_Config                               ./board/board.o
CAN1_DriverIRQHandler                             ./startup/startup_mimxrt1021.o
CAN1_IRQHandler                                   ./startup/startup_mimxrt1021.o
CAN2_DriverIRQHandler                             ./startup/startup_mimxrt1021.o
CAN2_IRQHandler                                   ./startup/startup_mimxrt1021.o
CCM_1_DriverIRQHandler                            ./startup/startup_mimxrt1021.o
CCM_1_IRQHandler                                  ./startup/startup_mimxrt1021.o
CCM_2_DriverIRQHandler                            ./startup/startup_mimxrt1021.o
CCM_2_IRQHandler                                  ./startup/startup_mimxrt1021.o
CLOCK_DeinitAudioPll                              ./drivers/fsl_clock.o
                                                  ./board/clock_config.o
CLOCK_DeinitEnetPll                               ./drivers/fsl_clock.o
CLOCK_DeinitExternalClk                           ./drivers/fsl_clock.o
CLOCK_DeinitRcOsc24M                              ./drivers/fsl_clock.o
CLOCK_DeinitSysPfd                                ./drivers/fsl_clock.o
CLOCK_DeinitSysPll                                ./drivers/fsl_clock.o
CLOCK_DeinitUsb1Pfd                               ./drivers/fsl_clock.o
CLOCK_DeinitUsb1Pll                               ./drivers/fsl_clock.o
CLOCK_DisableUsbhs0PhyPllClock                    ./drivers/fsl_clock.o
CLOCK_EnableUsbhs0Clock                           ./drivers/fsl_clock.o
CLOCK_EnableUsbhs0PhyPllClock                     ./drivers/fsl_clock.o
CLOCK_GetAhbFreq                                  ./drivers/fsl_clock.o
CLOCK_GetFreq                                     ./drivers/fsl_clock.o
                                                  ./source/qtmr_inputcapture_outputpwm.o
CLOCK_GetIpgFreq                                  ./drivers/fsl_clock.o
CLOCK_GetPerClkFreq                               ./drivers/fsl_clock.o
CLOCK_GetPllFreq                                  ./drivers/fsl_clock.o
                                                  ./board/board.o
CLOCK_GetSemcFreq                                 ./drivers/fsl_clock.o
CLOCK_GetSysPfdFreq                               ./drivers/fsl_clock.o
CLOCK_GetUsb1PfdFreq                              ./drivers/fsl_clock.o
CLOCK_InitAudioPll                                ./drivers/fsl_clock.o
CLOCK_InitEnetPll                                 ./drivers/fsl_clock.o
                                                  ./board/clock_config.o
CLOCK_InitExternalClk                             ./drivers/fsl_clock.o
                                                  ./board/clock_config.o
CLOCK_InitRcOsc24M                                ./drivers/fsl_clock.o
                                                  ./board/clock_config.o
CLOCK_InitSysPfd                                  ./drivers/fsl_clock.o
                                                  ./board/clock_config.o
CLOCK_InitSysPll                                  ./drivers/fsl_clock.o
                                                  ./board/clock_config.o
CLOCK_InitUsb1Pfd                                 ./drivers/fsl_clock.o
CLOCK_InitUsb1Pll                                 ./drivers/fsl_clock.o
CLOCK_SwitchOsc                                   ./drivers/fsl_clock.o
                                                  ./board/clock_config.o
CORE_DriverIRQHandler                             ./startup/startup_mimxrt1021.o
CORE_IRQHandler                                   ./startup/startup_mimxrt1021.o
CSU_DriverIRQHandler                              ./startup/startup_mimxrt1021.o
CSU_IRQHandler                                    ./startup/startup_mimxrt1021.o
CTI0_ERROR_DriverIRQHandler                       ./startup/startup_mimxrt1021.o
CTI0_ERROR_IRQHandler                             ./startup/startup_mimxrt1021.o
CTI1_ERROR_DriverIRQHandler                       ./startup/startup_mimxrt1021.o
CTI1_ERROR_IRQHandler                             ./startup/startup_mimxrt1021.o
DCDC_DriverIRQHandler                             ./startup/startup_mimxrt1021.o
DCDC_IRQHandler                                   ./startup/startup_mimxrt1021.o
DCP_DriverIRQHandler                              ./startup/startup_mimxrt1021.o
DCP_IRQHandler                                    ./startup/startup_mimxrt1021.o
DCP_VMI_DriverIRQHandler                          ./startup/startup_mimxrt1021.o
DCP_VMI_IRQHandler                                ./startup/startup_mimxrt1021.o
DMA0_DMA16_DriverIRQHandler                       ./startup/startup_mimxrt1021.o
DMA0_DMA16_IRQHandler                             ./startup/startup_mimxrt1021.o
DMA10_DMA26_DriverIRQHandler                      ./startup/startup_mimxrt1021.o
DMA10_DMA26_IRQHandler                            ./startup/startup_mimxrt1021.o
DMA11_DMA27_DriverIRQHandler                      ./startup/startup_mimxrt1021.o
DMA11_DMA27_IRQHandler                            ./startup/startup_mimxrt1021.o
DMA12_DMA28_DriverIRQHandler                      ./startup/startup_mimxrt1021.o
DMA12_DMA28_IRQHandler                            ./startup/startup_mimxrt1021.o
DMA13_DMA29_DriverIRQHandler                      ./startup/startup_mimxrt1021.o
DMA13_DMA29_IRQHandler                            ./startup/startup_mimxrt1021.o
DMA14_DMA30_DriverIRQHandler                      ./startup/startup_mimxrt1021.o
DMA14_DMA30_IRQHandler                            ./startup/startup_mimxrt1021.o
DMA15_DMA31_DriverIRQHandler                      ./startup/startup_mimxrt1021.o
DMA15_DMA31_IRQHandler                            ./startup/startup_mimxrt1021.o
DMA1_DMA17_DriverIRQHandler                       ./startup/startup_mimxrt1021.o
DMA1_DMA17_IRQHandler                             ./startup/startup_mimxrt1021.o
DMA2_DMA18_DriverIRQHandler                       ./startup/startup_mimxrt1021.o
DMA2_DMA18_IRQHandler                             ./startup/startup_mimxrt1021.o
DMA3_DMA19_DriverIRQHandler                       ./startup/startup_mimxrt1021.o
DMA3_DMA19_IRQHandler                             ./startup/startup_mimxrt1021.o
DMA4_DMA20_DriverIRQHandler                       ./startup/startup_mimxrt1021.o
DMA4_DMA20_IRQHandler                             ./startup/startup_mimxrt1021.o
DMA5_DMA21_DriverIRQHandler                       ./startup/startup_mimxrt1021.o
DMA5_DMA21_IRQHandler                             ./startup/startup_mimxrt1021.o
DMA6_DMA22_DriverIRQHandler                       ./startup/startup_mimxrt1021.o
DMA6_DMA22_IRQHandler                             ./startup/startup_mimxrt1021.o
DMA7_DMA23_DriverIRQHandler                       ./startup/startup_mimxrt1021.o
DMA7_DMA23_IRQHandler                             ./startup/startup_mimxrt1021.o
DMA8_DMA24_DriverIRQHandler                       ./startup/startup_mimxrt1021.o
DMA8_DMA24_IRQHandler                             ./startup/startup_mimxrt1021.o
DMA9_DMA25_DriverIRQHandler                       ./startup/startup_mimxrt1021.o
DMA9_DMA25_IRQHandler                             ./startup/startup_mimxrt1021.o
DMA_ERROR_DriverIRQHandler                        ./startup/startup_mimxrt1021.o
DMA_ERROR_IRQHandler                              ./startup/startup_mimxrt1021.o
DbgConsole_ReadCharacter                          ./utilities/fsl_debug_console.o
DbgConsole_ReadLine                               ./utilities/fsl_debug_console.o
DbgConsole_ReadOneCharacter                       ./utilities/fsl_debug_console.o
DbgConsole_SendData                               ./utilities/fsl_debug_console.o
DbgConsole_SendDataReliable                       ./utilities/fsl_debug_console.o
ENC1_DriverIRQHandler                             ./startup/startup_mimxrt1021.o
ENC1_IRQHandler                                   ./startup/startup_mimxrt1021.o
ENC2_DriverIRQHandler                             ./startup/startup_mimxrt1021.o
ENC2_IRQHandler                                   ./startup/startup_mimxrt1021.o
ENET_1588_Timer_DriverIRQHandler                  ./startup/startup_mimxrt1021.o
ENET_1588_Timer_IRQHandler                        ./startup/startup_mimxrt1021.o
ENET_DriverIRQHandler                             ./startup/startup_mimxrt1021.o
ENET_IRQHandler                                   ./startup/startup_mimxrt1021.o
EWM_DriverIRQHandler                              ./startup/startup_mimxrt1021.o
EWM_IRQHandler                                    ./startup/startup_mimxrt1021.o
FLEXIO1_DriverIRQHandler                          ./startup/startup_mimxrt1021.o
FLEXIO1_IRQHandler                                ./startup/startup_mimxrt1021.o
FLEXRAM_DriverIRQHandler                          ./startup/startup_mimxrt1021.o
FLEXRAM_IRQHandler                                ./startup/startup_mimxrt1021.o
FLEXSPI_DriverIRQHandler                          ./startup/startup_mimxrt1021.o
FLEXSPI_IRQHandler                                ./startup/startup_mimxrt1021.o
GPC_DriverIRQHandler                              ./startup/startup_mimxrt1021.o
GPC_IRQHandler                                    ./startup/startup_mimxrt1021.o
GPIO1_Combined_0_15_DriverIRQHandler              ./startup/startup_mimxrt1021.o
GPIO1_Combined_0_15_IRQHandler                    ./startup/startup_mimxrt1021.o
GPIO1_Combined_16_31_DriverIRQHandler             ./startup/startup_mimxrt1021.o
GPIO1_Combined_16_31_IRQHandler                   ./startup/startup_mimxrt1021.o
GPIO1_INT0_DriverIRQHandler                       ./startup/startup_mimxrt1021.o
GPIO1_INT0_IRQHandler                             ./startup/startup_mimxrt1021.o
GPIO1_INT1_DriverIRQHandler                       ./startup/startup_mimxrt1021.o
GPIO1_INT1_IRQHandler                             ./startup/startup_mimxrt1021.o
GPIO1_INT2_DriverIRQHandler                       ./startup/startup_mimxrt1021.o
GPIO1_INT2_IRQHandler                             ./startup/startup_mimxrt1021.o
GPIO1_INT3_DriverIRQHandler                       ./startup/startup_mimxrt1021.o
GPIO1_INT3_IRQHandler                             ./startup/startup_mimxrt1021.o
GPIO1_INT4_DriverIRQHandler                       ./startup/startup_mimxrt1021.o
GPIO1_INT4_IRQHandler                             ./startup/startup_mimxrt1021.o
GPIO1_INT5_DriverIRQHandler                       ./startup/startup_mimxrt1021.o
GPIO1_INT5_IRQHandler                             ./startup/startup_mimxrt1021.o
GPIO1_INT6_DriverIRQHandler                       ./startup/startup_mimxrt1021.o
GPIO1_INT6_IRQHandler                             ./startup/startup_mimxrt1021.o
GPIO1_INT7_DriverIRQHandler                       ./startup/startup_mimxrt1021.o
GPIO1_INT7_IRQHandler                             ./startup/startup_mimxrt1021.o
GPIO2_Combined_0_15_DriverIRQHandler              ./startup/startup_mimxrt1021.o
GPIO2_Combined_0_15_IRQHandler                    ./startup/startup_mimxrt1021.o
GPIO2_Combined_16_31_DriverIRQHandler             ./startup/startup_mimxrt1021.o
GPIO2_Combined_16_31_IRQHandler                   ./startup/startup_mimxrt1021.o
GPIO3_Combined_0_15_DriverIRQHandler              ./startup/startup_mimxrt1021.o
GPIO3_Combined_0_15_IRQHandler                    ./startup/startup_mimxrt1021.o
GPIO3_Combined_16_31_DriverIRQHandler             ./startup/startup_mimxrt1021.o
GPIO3_Combined_16_31_IRQHandler                   ./startup/startup_mimxrt1021.o
GPIO5_Combined_0_15_DriverIRQHandler              ./startup/startup_mimxrt1021.o
GPIO5_Combined_0_15_IRQHandler                    ./startup/startup_mimxrt1021.o
GPIO5_Combined_16_31_DriverIRQHandler             ./startup/startup_mimxrt1021.o
GPIO5_Combined_16_31_IRQHandler                   ./startup/startup_mimxrt1021.o
GPIO_PinInit                                      ./drivers/fsl_gpio.o
GPIO_PinSetInterruptConfig                        ./drivers/fsl_gpio.o
GPIO_PinWrite                                     ./drivers/fsl_gpio.o
GPR_IRQ_DriverIRQHandler                          ./startup/startup_mimxrt1021.o
GPR_IRQ_IRQHandler                                ./startup/startup_mimxrt1021.o
GPT1_DriverIRQHandler                             ./startup/startup_mimxrt1021.o
GPT1_IRQHandler                                   ./startup/startup_mimxrt1021.o
GPT2_DriverIRQHandler                             ./startup/startup_mimxrt1021.o
GPT2_IRQHandler                                   ./startup/startup_mimxrt1021.o
HAL_UartDeinit                                    ./component/uart/lpuart_adapter.o
                                                  ./component/serial_manager/serial_port_uart.o
HAL_UartEnterLowpower                             ./component/uart/lpuart_adapter.o
                                                  ./component/serial_manager/serial_port_uart.o
HAL_UartExitLowpower                              ./component/uart/lpuart_adapter.o
                                                  ./component/serial_manager/serial_port_uart.o
HAL_UartInit                                      ./component/uart/lpuart_adapter.o
                                                  ./component/serial_manager/serial_port_uart.o
HAL_UartReceiveBlocking                           ./component/uart/lpuart_adapter.o
                                                  ./component/serial_manager/serial_port_uart.o
HAL_UartSendBlocking                              ./component/uart/lpuart_adapter.o
                                                  ./component/serial_manager/serial_port_uart.o
HardFault_Handler                                 ./source/semihost_hardfault.o
                                                  ./startup/startup_mimxrt1021.o
IntDefaultHandler                                 ./startup/startup_mimxrt1021.o
KPP_DriverIRQHandler                              ./startup/startup_mimxrt1021.o
KPP_IRQHandler                                    ./startup/startup_mimxrt1021.o
LIST_AddHead                                      ./component/lists/generic_list.o
LIST_AddPrevElement                               ./component/lists/generic_list.o
LIST_AddTail                                      ./component/lists/generic_list.o
LIST_GetAvailableSize                             ./component/lists/generic_list.o
LIST_GetHead                                      ./component/lists/generic_list.o
LIST_GetList                                      ./component/lists/generic_list.o
LIST_GetNext                                      ./component/lists/generic_list.o
LIST_GetPrev                                      ./component/lists/generic_list.o
LIST_GetSize                                      ./component/lists/generic_list.o
LIST_Init                                         ./component/lists/generic_list.o
LIST_RemoveElement                                ./component/lists/generic_list.o
LIST_RemoveHead                                   ./component/lists/generic_list.o
LPI2C1_DriverIRQHandler                           ./startup/startup_mimxrt1021.o
LPI2C1_IRQHandler                                 ./startup/startup_mimxrt1021.o
LPI2C2_DriverIRQHandler                           ./startup/startup_mimxrt1021.o
LPI2C2_IRQHandler                                 ./startup/startup_mimxrt1021.o
LPI2C3_DriverIRQHandler                           ./startup/startup_mimxrt1021.o
LPI2C3_IRQHandler                                 ./startup/startup_mimxrt1021.o
LPI2C4_DriverIRQHandler                           ./startup/startup_mimxrt1021.o
LPI2C4_IRQHandler                                 ./startup/startup_mimxrt1021.o
LPSPI1_DriverIRQHandler                           ./drivers/fsl_lpspi.o
                                                  ./startup/startup_mimxrt1021.o
LPSPI1_IRQHandler                                 ./startup/startup_mimxrt1021.o
LPSPI2_DriverIRQHandler                           ./drivers/fsl_lpspi.o
                                                  ./startup/startup_mimxrt1021.o
LPSPI2_IRQHandler                                 ./startup/startup_mimxrt1021.o
LPSPI3_DriverIRQHandler                           ./drivers/fsl_lpspi.o
                                                  ./startup/startup_mimxrt1021.o
LPSPI3_IRQHandler                                 ./startup/startup_mimxrt1021.o
LPSPI4_DriverIRQHandler                           ./drivers/fsl_lpspi.o
                                                  ./startup/startup_mimxrt1021.o
LPSPI4_IRQHandler                                 ./startup/startup_mimxrt1021.o
LPSPI_CheckTransferArgument                       ./drivers/fsl_lpspi.o
LPSPI_Deinit                                      ./drivers/fsl_lpspi.o
LPSPI_GetInstance                                 ./drivers/fsl_lpspi.o
LPSPI_MasterGetDefaultConfig                      ./drivers/fsl_lpspi.o
LPSPI_MasterInit                                  ./drivers/fsl_lpspi.o
                                                  ./source/qtmr_inputcapture_outputpwm.o
LPSPI_MasterSetBaudRate                           ./drivers/fsl_lpspi.o
LPSPI_MasterSetDelayScaler                        ./drivers/fsl_lpspi.o
LPSPI_MasterSetDelayTimes                         ./drivers/fsl_lpspi.o
LPSPI_MasterTransferAbort                         ./drivers/fsl_lpspi.o
LPSPI_MasterTransferBlocking                      ./drivers/fsl_lpspi.o
LPSPI_MasterTransferCreateHandle                  ./drivers/fsl_lpspi.o
LPSPI_MasterTransferGetCount                      ./drivers/fsl_lpspi.o
LPSPI_MasterTransferHandleIRQ                     ./drivers/fsl_lpspi.o
LPSPI_MasterTransferNonBlocking                   ./drivers/fsl_lpspi.o
LPSPI_Reset                                       ./drivers/fsl_lpspi.o
LPSPI_SetDummyData                                ./drivers/fsl_lpspi.o
LPSPI_SlaveGetDefaultConfig                       ./drivers/fsl_lpspi.o
LPSPI_SlaveInit                                   ./drivers/fsl_lpspi.o
LPSPI_SlaveTransferAbort                          ./drivers/fsl_lpspi.o
LPSPI_SlaveTransferCreateHandle                   ./drivers/fsl_lpspi.o
LPSPI_SlaveTransferGetCount                       ./drivers/fsl_lpspi.o
LPSPI_SlaveTransferHandleIRQ                      ./drivers/fsl_lpspi.o
LPSPI_SlaveTransferNonBlocking                    ./drivers/fsl_lpspi.o
LPUART1_DriverIRQHandler                          ./drivers/fsl_lpuart.o
                                                  ./startup/startup_mimxrt1021.o
LPUART1_IRQHandler                                ./startup/startup_mimxrt1021.o
LPUART2_DriverIRQHandler                          ./drivers/fsl_lpuart.o
                                                  ./startup/startup_mimxrt1021.o
LPUART2_IRQHandler                                ./startup/startup_mimxrt1021.o
LPUART3_DriverIRQHandler                          ./drivers/fsl_lpuart.o
                                                  ./startup/startup_mimxrt1021.o
LPUART3_IRQHandler                                ./startup/startup_mimxrt1021.o
LPUART4_DriverIRQHandler                          ./drivers/fsl_lpuart.o
                                                  ./startup/startup_mimxrt1021.o
LPUART4_IRQHandler                                ./startup/startup_mimxrt1021.o
LPUART5_DriverIRQHandler                          ./drivers/fsl_lpuart.o
                                                  ./startup/startup_mimxrt1021.o
LPUART5_IRQHandler                                ./startup/startup_mimxrt1021.o
LPUART6_DriverIRQHandler                          ./drivers/fsl_lpuart.o
                                                  ./startup/startup_mimxrt1021.o
LPUART6_IRQHandler                                ./startup/startup_mimxrt1021.o
LPUART7_DriverIRQHandler                          ./drivers/fsl_lpuart.o
                                                  ./startup/startup_mimxrt1021.o
LPUART7_IRQHandler                                ./startup/startup_mimxrt1021.o
LPUART8_DriverIRQHandler                          ./drivers/fsl_lpuart.o
                                                  ./startup/startup_mimxrt1021.o
LPUART8_IRQHandler                                ./startup/startup_mimxrt1021.o
LPUART_ClearStatusFlags                           ./drivers/fsl_lpuart.o
LPUART_Deinit                                     ./drivers/fsl_lpuart.o
                                                  ./component/uart/lpuart_adapter.o
LPUART_DisableInterrupts                          ./drivers/fsl_lpuart.o
LPUART_EnableInterrupts                           ./drivers/fsl_lpuart.o
LPUART_GetDefaultConfig                           ./drivers/fsl_lpuart.o
                                                  ./component/uart/lpuart_adapter.o
LPUART_GetEnabledInterrupts                       ./drivers/fsl_lpuart.o
LPUART_GetInstance                                ./drivers/fsl_lpuart.o
LPUART_GetStatusFlags                             ./drivers/fsl_lpuart.o
LPUART_Init                                       ./drivers/fsl_lpuart.o
                                                  ./component/uart/lpuart_adapter.o
LPUART_ReadBlocking                               ./drivers/fsl_lpuart.o
                                                  ./component/uart/lpuart_adapter.o
LPUART_SetBaudRate                                ./drivers/fsl_lpuart.o
LPUART_TransferAbortReceive                       ./drivers/fsl_lpuart.o
LPUART_TransferAbortSend                          ./drivers/fsl_lpuart.o
LPUART_TransferCreateHandle                       ./drivers/fsl_lpuart.o
LPUART_TransferGetReceiveCount                    ./drivers/fsl_lpuart.o
LPUART_TransferGetRxRingBufferLength              ./drivers/fsl_lpuart.o
LPUART_TransferGetSendCount                       ./drivers/fsl_lpuart.o
LPUART_TransferHandleErrorIRQ                     ./drivers/fsl_lpuart.o
LPUART_TransferHandleIRQ                          ./drivers/fsl_lpuart.o
LPUART_TransferReceiveNonBlocking                 ./drivers/fsl_lpuart.o
LPUART_TransferSendNonBlocking                    ./drivers/fsl_lpuart.o
LPUART_TransferStartRingBuffer                    ./drivers/fsl_lpuart.o
LPUART_TransferStopRingBuffer                     ./drivers/fsl_lpuart.o
LPUART_WriteBlocking                              ./drivers/fsl_lpuart.o
                                                  ./component/uart/lpuart_adapter.o
NMI_Handler                                       ./startup/startup_mimxrt1021.o
PIT_DriverIRQHandler                              ./startup/startup_mimxrt1021.o
PIT_IRQHandler                                    ./startup/startup_mimxrt1021.o
PMU_DriverIRQHandler                              ./startup/startup_mimxrt1021.o
PMU_IRQHandler                                    ./startup/startup_mimxrt1021.o
PWM1_0_DriverIRQHandler                           ./startup/startup_mimxrt1021.o
PWM1_0_IRQHandler                                 ./startup/startup_mimxrt1021.o
PWM1_1_DriverIRQHandler                           ./startup/startup_mimxrt1021.o
PWM1_1_IRQHandler                                 ./startup/startup_mimxrt1021.o
PWM1_2_DriverIRQHandler                           ./startup/startup_mimxrt1021.o
PWM1_2_IRQHandler                                 ./startup/startup_mimxrt1021.o
PWM1_3_DriverIRQHandler                           ./startup/startup_mimxrt1021.o
PWM1_3_IRQHandler                                 ./startup/startup_mimxrt1021.o
PWM1_FAULT_DriverIRQHandler                       ./startup/startup_mimxrt1021.o
PWM1_FAULT_IRQHandler                             ./startup/startup_mimxrt1021.o
PWM2_0_DriverIRQHandler                           ./startup/startup_mimxrt1021.o
PWM2_0_IRQHandler                                 ./startup/startup_mimxrt1021.o
PWM2_1_DriverIRQHandler                           ./startup/startup_mimxrt1021.o
PWM2_1_IRQHandler                                 ./startup/startup_mimxrt1021.o
PWM2_2_DriverIRQHandler                           ./startup/startup_mimxrt1021.o
PWM2_2_IRQHandler                                 ./startup/startup_mimxrt1021.o
PWM2_3_DriverIRQHandler                           ./startup/startup_mimxrt1021.o
PWM2_3_IRQHandler                                 ./startup/startup_mimxrt1021.o
PWM2_FAULT_DriverIRQHandler                       ./startup/startup_mimxrt1021.o
PWM2_FAULT_IRQHandler                             ./startup/startup_mimxrt1021.o
PendSV_Handler                                    ./startup/startup_mimxrt1021.o
QTMR_ClearStatusFlags                             ./drivers/fsl_qtmr.o
                                                  ./source/qtmr_inputcapture_outputpwm.o
QTMR_Deinit                                       ./drivers/fsl_qtmr.o
QTMR_DisableDma                                   ./drivers/fsl_qtmr.o
QTMR_DisableInterrupts                            ./drivers/fsl_qtmr.o
QTMR_EnableDma                                    ./drivers/fsl_qtmr.o
QTMR_EnableInterrupts                             ./drivers/fsl_qtmr.o
QTMR_GetDefaultConfig                             ./drivers/fsl_qtmr.o
                                                  ./source/qtmr_inputcapture_outputpwm.o
QTMR_GetEnabledInterrupts                         ./drivers/fsl_qtmr.o
QTMR_GetStatus                                    ./drivers/fsl_qtmr.o
QTMR_Init                                         ./drivers/fsl_qtmr.o
                                                  ./source/qtmr_inputcapture_outputpwm.o
QTMR_SetTimerPeriod                               ./drivers/fsl_qtmr.o
QTMR_SetupInputCapture                            ./drivers/fsl_qtmr.o
                                                  ./source/qtmr_inputcapture_outputpwm.o
QTMR_SetupPwm                                     ./drivers/fsl_qtmr.o
                                                  ./source/qtmr_inputcapture_outputpwm.o
RTWDOG_DriverIRQHandler                           ./startup/startup_mimxrt1021.o
RTWDOG_IRQHandler                                 ./startup/startup_mimxrt1021.o
Reserved102_DriverIRQHandler                      ./startup/startup_mimxrt1021.o
Reserved102_IRQHandler                            ./startup/startup_mimxrt1021.o
Reserved103_DriverIRQHandler                      ./startup/startup_mimxrt1021.o
Reserved103_IRQHandler                            ./startup/startup_mimxrt1021.o
Reserved107_DriverIRQHandler                      ./startup/startup_mimxrt1021.o
Reserved107_IRQHandler                            ./startup/startup_mimxrt1021.o
Reserved115_DriverIRQHandler                      ./startup/startup_mimxrt1021.o
Reserved115_IRQHandler                            ./startup/startup_mimxrt1021.o
Reserved123_DriverIRQHandler                      ./startup/startup_mimxrt1021.o
Reserved123_IRQHandler                            ./startup/startup_mimxrt1021.o
Reserved128_DriverIRQHandler                      ./startup/startup_mimxrt1021.o
Reserved128_IRQHandler                            ./startup/startup_mimxrt1021.o
Reserved143_DriverIRQHandler                      ./startup/startup_mimxrt1021.o
Reserved143_IRQHandler                            ./startup/startup_mimxrt1021.o
Reserved144_DriverIRQHandler                      ./startup/startup_mimxrt1021.o
Reserved144_IRQHandler                            ./startup/startup_mimxrt1021.o
Reserved147_DriverIRQHandler                      ./startup/startup_mimxrt1021.o
Reserved147_IRQHandler                            ./startup/startup_mimxrt1021.o
Reserved148_DriverIRQHandler                      ./startup/startup_mimxrt1021.o
Reserved148_IRQHandler                            ./startup/startup_mimxrt1021.o
Reserved151_DriverIRQHandler                      ./startup/startup_mimxrt1021.o
Reserved151_IRQHandler                            ./startup/startup_mimxrt1021.o
Reserved152_DriverIRQHandler                      ./startup/startup_mimxrt1021.o
Reserved152_IRQHandler                            ./startup/startup_mimxrt1021.o
Reserved56_DriverIRQHandler                       ./startup/startup_mimxrt1021.o
Reserved56_IRQHandler                             ./startup/startup_mimxrt1021.o
Reserved58_DriverIRQHandler                       ./startup/startup_mimxrt1021.o
Reserved58_IRQHandler                             ./startup/startup_mimxrt1021.o
Reserved59_DriverIRQHandler                       ./startup/startup_mimxrt1021.o
Reserved59_IRQHandler                             ./startup/startup_mimxrt1021.o
Reserved60_DriverIRQHandler                       ./startup/startup_mimxrt1021.o
Reserved60_IRQHandler                             ./startup/startup_mimxrt1021.o
Reserved68_DriverIRQHandler                       ./startup/startup_mimxrt1021.o
Reserved68_IRQHandler                             ./startup/startup_mimxrt1021.o
Reserved70_DriverIRQHandler                       ./startup/startup_mimxrt1021.o
Reserved70_IRQHandler                             ./startup/startup_mimxrt1021.o
Reserved78_DriverIRQHandler                       ./startup/startup_mimxrt1021.o
Reserved78_IRQHandler                             ./startup/startup_mimxrt1021.o
Reserved82_DriverIRQHandler                       ./startup/startup_mimxrt1021.o
Reserved82_IRQHandler                             ./startup/startup_mimxrt1021.o
Reserved86_DriverIRQHandler                       ./startup/startup_mimxrt1021.o
Reserved86_IRQHandler                             ./startup/startup_mimxrt1021.o
Reserved87_DriverIRQHandler                       ./startup/startup_mimxrt1021.o
Reserved87_IRQHandler                             ./startup/startup_mimxrt1021.o
ResetISR                                          ./startup/startup_mimxrt1021.o
SAI1_DriverIRQHandler                             ./startup/startup_mimxrt1021.o
SAI1_IRQHandler                                   ./startup/startup_mimxrt1021.o
SAI2_DriverIRQHandler                             ./startup/startup_mimxrt1021.o
SAI2_IRQHandler                                   ./startup/startup_mimxrt1021.o
SAI3_RX_DriverIRQHandler                          ./startup/startup_mimxrt1021.o
SAI3_RX_IRQHandler                                ./startup/startup_mimxrt1021.o
SAI3_TX_DriverIRQHandler                          ./startup/startup_mimxrt1021.o
SAI3_TX_IRQHandler                                ./startup/startup_mimxrt1021.o
SDK_DelayAtLeastUs                                ./drivers/fsl_common.o
SDK_Free                                          ./drivers/fsl_common.o
SDK_Malloc                                        ./drivers/fsl_common.o
SEMC_DriverIRQHandler                             ./startup/startup_mimxrt1021.o
SEMC_IRQHandler                                   ./startup/startup_mimxrt1021.o
SNVS_HP_WRAPPER_DriverIRQHandler                  ./startup/startup_mimxrt1021.o
SNVS_HP_WRAPPER_IRQHandler                        ./startup/startup_mimxrt1021.o
SNVS_HP_WRAPPER_TZ_DriverIRQHandler               ./startup/startup_mimxrt1021.o
SNVS_HP_WRAPPER_TZ_IRQHandler                     ./startup/startup_mimxrt1021.o
SNVS_LP_WRAPPER_DriverIRQHandler                  ./startup/startup_mimxrt1021.o
SNVS_LP_WRAPPER_IRQHandler                        ./startup/startup_mimxrt1021.o
SPDIF_DriverIRQHandler                            ./startup/startup_mimxrt1021.o
SPDIF_IRQHandler                                  ./startup/startup_mimxrt1021.o
SRC_DriverIRQHandler                              ./startup/startup_mimxrt1021.o
SRC_IRQHandler                                    ./startup/startup_mimxrt1021.o
SVC_Handler                                       ./startup/startup_mimxrt1021.o
SerialManager_CloseReadHandle                     ./component/serial_manager/serial_manager.o
SerialManager_CloseWriteHandle                    ./component/serial_manager/serial_manager.o
SerialManager_Deinit                              ./component/serial_manager/serial_manager.o
SerialManager_EnterLowpower                       ./component/serial_manager/serial_manager.o
SerialManager_ExitLowpower                        ./component/serial_manager/serial_manager.o
SerialManager_Init                                ./component/serial_manager/serial_manager.o
SerialManager_OpenReadHandle                      ./component/serial_manager/serial_manager.o
SerialManager_OpenWriteHandle                     ./component/serial_manager/serial_manager.o
SerialManager_ReadBlocking                        ./component/serial_manager/serial_manager.o
                                                  ./utilities/fsl_debug_console.o
SerialManager_WriteBlocking                       ./component/serial_manager/serial_manager.o
                                                  ./utilities/fsl_debug_console.o
Serial_UartDeinit                                 ./component/serial_manager/serial_port_uart.o
                                                  ./component/serial_manager/serial_manager.o
Serial_UartEnterLowpower                          ./component/serial_manager/serial_port_uart.o
                                                  ./component/serial_manager/serial_manager.o
Serial_UartExitLowpower                           ./component/serial_manager/serial_port_uart.o
                                                  ./component/serial_manager/serial_manager.o
Serial_UartInit                                   ./component/serial_manager/serial_port_uart.o
                                                  ./component/serial_manager/serial_manager.o
Serial_UartRead                                   ./component/serial_manager/serial_port_uart.o
                                                  ./component/serial_manager/serial_manager.o
Serial_UartWrite                                  ./component/serial_manager/serial_port_uart.o
                                                  ./component/serial_manager/serial_manager.o
StrFormatPrintf                                   ./utilities/fsl_str.o
StrFormatScanf                                    ./utilities/fsl_str.o
SysTick_Handler                                   ./startup/startup_mimxrt1021.o
SystemCoreClock                                   ./device/system_MIMXRT1021.o
                                                  ./board/clock_config.o
SystemCoreClockUpdate                             ./device/system_MIMXRT1021.o
SystemInit                                        ./device/system_MIMXRT1021.o
                                                  ./startup/startup_mimxrt1021.o
SystemInitHook                                    ./device/system_MIMXRT1021.o
TEMP_LOW_HIGH_DriverIRQHandler                    ./startup/startup_mimxrt1021.o
TEMP_LOW_HIGH_IRQHandler                          ./startup/startup_mimxrt1021.o
TEMP_PANIC_DriverIRQHandler                       ./startup/startup_mimxrt1021.o
TEMP_PANIC_IRQHandler                             ./startup/startup_mimxrt1021.o
TMR1_DriverIRQHandler                             ./startup/startup_mimxrt1021.o
TMR1_IRQHandler                                   ./startup/startup_mimxrt1021.o
TMR2_DriverIRQHandler                             ./startup/startup_mimxrt1021.o
TMR2_IRQHandler                                   ./source/qtmr_inputcapture_outputpwm.o
                                                  ./startup/startup_mimxrt1021.o
TRNG_DriverIRQHandler                             ./startup/startup_mimxrt1021.o
TRNG_IRQHandler                                   ./startup/startup_mimxrt1021.o
USB_OTG1_DriverIRQHandler                         ./startup/startup_mimxrt1021.o
USB_OTG1_IRQHandler                               ./startup/startup_mimxrt1021.o
USB_PHY_DriverIRQHandler                          ./startup/startup_mimxrt1021.o
USB_PHY_IRQHandler                                ./startup/startup_mimxrt1021.o
USDHC1_DriverIRQHandler                           ./startup/startup_mimxrt1021.o
USDHC1_IRQHandler                                 ./startup/startup_mimxrt1021.o
USDHC2_DriverIRQHandler                           ./startup/startup_mimxrt1021.o
USDHC2_IRQHandler                                 ./startup/startup_mimxrt1021.o
WDOG1_DriverIRQHandler                            ./startup/startup_mimxrt1021.o
WDOG1_IRQHandler                                  ./startup/startup_mimxrt1021.o
WDOG2_DriverIRQHandler                            ./startup/startup_mimxrt1021.o
WDOG2_IRQHandler                                  ./startup/startup_mimxrt1021.o
XBAR1_IRQ_0_1_DriverIRQHandler                    ./startup/startup_mimxrt1021.o
XBAR1_IRQ_0_1_IRQHandler                          ./source/qtmr_inputcapture_outputpwm.o
                                                  ./startup/startup_mimxrt1021.o
XBAR1_IRQ_2_3_DriverIRQHandler                    ./startup/startup_mimxrt1021.o
XBAR1_IRQ_2_3_IRQHandler                          ./startup/startup_mimxrt1021.o
XBARA_ClearStatusFlags                            ./drivers/fsl_xbara.o
                                                  ./source/qtmr_inputcapture_outputpwm.o
XBARA_Deinit                                      ./drivers/fsl_xbara.o
XBARA_GetStatusFlags                              ./drivers/fsl_xbara.o
                                                  ./source/qtmr_inputcapture_outputpwm.o
XBARA_Init                                        ./drivers/fsl_xbara.o
                                                  ./source/qtmr_inputcapture_outputpwm.o
XBARA_SetOutputSignalConfig                       ./drivers/fsl_xbara.o
                                                  ./source/qtmr_inputcapture_outputpwm.o
XBARA_SetSignalsConnection                        ./drivers/fsl_xbara.o
                                                  ./source/qtmr_inputcapture_outputpwm.o
_Csys_alloc                                       /usr/local/mcuxpressoide-11.1.0_3209/ide/plugins/com.nxp.mcuxpresso.tools.linux_11.1.0.201909161352/tools/bin/../lib/gcc/arm-none-eabi/8.3.1/../../../../arm-none-eabi/lib/thumb/v7e-m+dp/hard/libcr_c.a(alloc.o)
                                                  /usr/local/mcuxpressoide-11.1.0_3209/ide/plugins/com.nxp.mcuxpresso.tools.linux_11.1.0.201909161352/tools/bin/../lib/gcc/arm-none-eabi/8.3.1/../../../../arm-none-eabi/lib/thumb/v7e-m+dp/hard/libcr_c.a(_deferredlazyseek.o)
_Cwritebuf                                        /usr/local/mcuxpressoide-11.1.0_3209/ide/plugins/com.nxp.mcuxpresso.tools.linux_11.1.0.201909161352/tools/bin/../lib/gcc/arm-none-eabi/8.3.1/../../../../arm-none-eabi/lib/thumb/v7e-m+dp/hard/libcr_c.a(_writebuf.o)
                                                  /usr/local/mcuxpressoide-11.1.0_3209/ide/plugins/com.nxp.mcuxpresso.tools.linux_11.1.0.201909161352/tools/bin/../lib/gcc/arm-none-eabi/8.3.1/../../../../arm-none-eabi/lib/thumb/v7e-m+dp/hard/libcr_c.a(_fflush.o)
                                                  /usr/local/mcuxpressoide-11.1.0_3209/ide/plugins/com.nxp.mcuxpresso.tools.linux_11.1.0.201909161352/tools/bin/../lib/gcc/arm-none-eabi/8.3.1/../../../../arm-none-eabi/lib/thumb/v7e-m+dp/hard/libcr_c.a(_deferredlazyseek.o)
__CR_SEMIHOST                                     /usr/local/mcuxpressoide-11.1.0_3209/ide/plugins/com.nxp.mcuxpresso.tools.linux_11.1.0.201909161352/tools/bin/../lib/gcc/arm-none-eabi/8.3.1/../../../../arm-none-eabi/lib/thumb/v7e-m+dp/hard/libcr_semihost_nf.a(_cr__main.o)
__Ciob                                            /usr/local/mcuxpressoide-11.1.0_3209/ide/plugins/com.nxp.mcuxpresso.tools.linux_11.1.0.201909161352/tools/bin/../lib/gcc/arm-none-eabi/8.3.1/../../../../arm-none-eabi/lib/thumb/v7e-m+dp/hard/libcr_semihost_nf.a(__ciob.o)
                                                  /usr/local/mcuxpressoide-11.1.0_3209/ide/plugins/com.nxp.mcuxpresso.tools.linux_11.1.0.201909161352/tools/bin/../lib/gcc/arm-none-eabi/8.3.1/../../../../arm-none-eabi/lib/thumb/v7e-m+dp/hard/libcr_c.a(fflush.o)
                                                  /usr/local/mcuxpressoide-11.1.0_3209/ide/plugins/com.nxp.mcuxpresso.tools.linux_11.1.0.201909161352/tools/bin/../lib/gcc/arm-none-eabi/8.3.1/../../../../arm-none-eabi/lib/thumb/v7e-m+dp/hard/libcr_c.a(printf.o)
                                                  /usr/local/mcuxpressoide-11.1.0_3209/ide/plugins/com.nxp.mcuxpresso.tools.linux_11.1.0.201909161352/tools/bin/../lib/gcc/arm-none-eabi/8.3.1/../../../../arm-none-eabi/lib/thumb/v7e-m+dp/hard/libcr_c.a(initio.o)
__Vectors                                         ./startup/startup_mimxrt1021.o
                                                  ./xip/fsl_flexspi_nor_boot.o
__aeabi_idiv0                                     /usr/local/mcuxpressoide-11.1.0_3209/ide/plugins/com.nxp.mcuxpresso.tools.linux_11.1.0.201909161352/tools/bin/../lib/gcc/arm-none-eabi/8.3.1/thumb/v7e-m+dp/hard/libcr_eabihelpers.a(division_idiv0.o)
                                                  /usr/local/mcuxpressoide-11.1.0_3209/ide/plugins/com.nxp.mcuxpresso.tools.linux_11.1.0.201909161352/tools/bin/../lib/gcc/arm-none-eabi/8.3.1/thumb/v7e-m+dp/hard/libcr_eabihelpers.a(division_64.o)
__aeabi_ldivmod                                   /usr/local/mcuxpressoide-11.1.0_3209/ide/plugins/com.nxp.mcuxpresso.tools.linux_11.1.0.201909161352/tools/bin/../lib/gcc/arm-none-eabi/8.3.1/thumb/v7e-m+dp/hard/libcr_eabihelpers.a(division_64.o)
__aeabi_lowlevel_memset                           /usr/local/mcuxpressoide-11.1.0_3209/ide/plugins/com.nxp.mcuxpresso.tools.linux_11.1.0.201909161352/tools/bin/../lib/gcc/arm-none-eabi/8.3.1/thumb/v7e-m+dp/hard/libcr_eabihelpers.a(memcpy.o)
                                                  /usr/local/mcuxpressoide-11.1.0_3209/ide/plugins/com.nxp.mcuxpresso.tools.linux_11.1.0.201909161352/tools/bin/../lib/gcc/arm-none-eabi/8.3.1/../../../../arm-none-eabi/lib/thumb/v7e-m+dp/hard/libcr_c.a(memset.o)
__aeabi_memclr                                    /usr/local/mcuxpressoide-11.1.0_3209/ide/plugins/com.nxp.mcuxpresso.tools.linux_11.1.0.201909161352/tools/bin/../lib/gcc/arm-none-eabi/8.3.1/thumb/v7e-m+dp/hard/libcr_eabihelpers.a(memcpy.o)
__aeabi_memclr4                                   /usr/local/mcuxpressoide-11.1.0_3209/ide/plugins/com.nxp.mcuxpresso.tools.linux_11.1.0.201909161352/tools/bin/../lib/gcc/arm-none-eabi/8.3.1/thumb/v7e-m+dp/hard/libcr_eabihelpers.a(memcpy.o)
__aeabi_memclr8                                   /usr/local/mcuxpressoide-11.1.0_3209/ide/plugins/com.nxp.mcuxpresso.tools.linux_11.1.0.201909161352/tools/bin/../lib/gcc/arm-none-eabi/8.3.1/thumb/v7e-m+dp/hard/libcr_eabihelpers.a(memcpy.o)
__aeabi_memcpy                                    /usr/local/mcuxpressoide-11.1.0_3209/ide/plugins/com.nxp.mcuxpresso.tools.linux_11.1.0.201909161352/tools/bin/../lib/gcc/arm-none-eabi/8.3.1/thumb/v7e-m+dp/hard/libcr_eabihelpers.a(memcpy.o)
                                                  /usr/local/mcuxpressoide-11.1.0_3209/ide/plugins/com.nxp.mcuxpresso.tools.linux_11.1.0.201909161352/tools/bin/../lib/gcc/arm-none-eabi/8.3.1/../../../../arm-none-eabi/lib/thumb/v7e-m+dp/hard/libcr_c.a(memcpy.o)
__aeabi_memcpy4                                   /usr/local/mcuxpressoide-11.1.0_3209/ide/plugins/com.nxp.mcuxpresso.tools.linux_11.1.0.201909161352/tools/bin/../lib/gcc/arm-none-eabi/8.3.1/thumb/v7e-m+dp/hard/libcr_eabihelpers.a(memcpy.o)
__aeabi_memcpy8                                   /usr/local/mcuxpressoide-11.1.0_3209/ide/plugins/com.nxp.mcuxpresso.tools.linux_11.1.0.201909161352/tools/bin/../lib/gcc/arm-none-eabi/8.3.1/thumb/v7e-m+dp/hard/libcr_eabihelpers.a(memcpy.o)
__aeabi_memmove                                   /usr/local/mcuxpressoide-11.1.0_3209/ide/plugins/com.nxp.mcuxpresso.tools.linux_11.1.0.201909161352/tools/bin/../lib/gcc/arm-none-eabi/8.3.1/thumb/v7e-m+dp/hard/libcr_eabihelpers.a(memcpy.o)
__aeabi_memmove4                                  /usr/local/mcuxpressoide-11.1.0_3209/ide/plugins/com.nxp.mcuxpresso.tools.linux_11.1.0.201909161352/tools/bin/../lib/gcc/arm-none-eabi/8.3.1/thumb/v7e-m+dp/hard/libcr_eabihelpers.a(memcpy.o)
__aeabi_memmove8                                  /usr/local/mcuxpressoide-11.1.0_3209/ide/plugins/com.nxp.mcuxpresso.tools.linux_11.1.0.201909161352/tools/bin/../lib/gcc/arm-none-eabi/8.3.1/thumb/v7e-m+dp/hard/libcr_eabihelpers.a(memcpy.o)
__aeabi_memset                                    /usr/local/mcuxpressoide-11.1.0_3209/ide/plugins/com.nxp.mcuxpresso.tools.linux_11.1.0.201909161352/tools/bin/../lib/gcc/arm-none-eabi/8.3.1/thumb/v7e-m+dp/hard/libcr_eabihelpers.a(memcpy.o)
__aeabi_memset4                                   /usr/local/mcuxpressoide-11.1.0_3209/ide/plugins/com.nxp.mcuxpresso.tools.linux_11.1.0.201909161352/tools/bin/../lib/gcc/arm-none-eabi/8.3.1/thumb/v7e-m+dp/hard/libcr_eabihelpers.a(memcpy.o)
__aeabi_memset8                                   /usr/local/mcuxpressoide-11.1.0_3209/ide/plugins/com.nxp.mcuxpresso.tools.linux_11.1.0.201909161352/tools/bin/../lib/gcc/arm-none-eabi/8.3.1/thumb/v7e-m+dp/hard/libcr_eabihelpers.a(memcpy.o)
__aeabi_uldivmod                                  /usr/local/mcuxpressoide-11.1.0_3209/ide/plugins/com.nxp.mcuxpresso.tools.linux_11.1.0.201909161352/tools/bin/../lib/gcc/arm-none-eabi/8.3.1/thumb/v7e-m+dp/hard/libcr_eabihelpers.a(division_64.o)
                                                  ./device/system_MIMXRT1021.o
                                                  ./drivers/fsl_lpspi.o
                                                  ./drivers/fsl_common.o
__assertion_failed                                ./utilities/fsl_assert.o
                                                  ./board/pin_mux.o
                                                  ./board/clock_config.o
                                                  ./board/board.o
                                                  ./component/serial_manager/serial_port_uart.o
                                                  ./component/serial_manager/serial_manager.o
                                                  ./component/uart/lpuart_adapter.o
                                                  ./drivers/fsl_xbara.o
                                                  ./drivers/fsl_qtmr.o
                                                  ./drivers/fsl_lpuart.o
                                                  ./drivers/fsl_lpspi.o
                                                  ./drivers/fsl_gpio.o
                                                  ./drivers/fsl_common.o
                                                  ./drivers/fsl_clock.o
                                                  ./utilities/fsl_debug_console.o
__base_NCACHE_REGION                              ./board/board.o
__bhs_ldivmod1                                    /usr/local/mcuxpressoide-11.1.0_3209/ide/plugins/com.nxp.mcuxpresso.tools.linux_11.1.0.201909161352/tools/bin/../lib/gcc/arm-none-eabi/8.3.1/thumb/v7e-m+dp/hard/libcr_eabihelpers.a(division_64.o)
__boot_hdr_start__                                ./xip/fsl_flexspi_nor_boot.o
__bss_section_table_end                           ./startup/startup_mimxrt1021.o
__check_heap_overflow                             /usr/local/mcuxpressoide-11.1.0_3209/ide/plugins/com.nxp.mcuxpresso.tools.linux_11.1.0.201909161352/tools/bin/../lib/gcc/arm-none-eabi/8.3.1/../../../../arm-none-eabi/lib/thumb/v7e-m+dp/hard/libcr_c.a(_cr_check_heap.o)
                                                  /usr/local/mcuxpressoide-11.1.0_3209/ide/plugins/com.nxp.mcuxpresso.tools.linux_11.1.0.201909161352/tools/bin/../lib/gcc/arm-none-eabi/8.3.1/../../../../arm-none-eabi/lib/thumb/v7e-m+dp/hard/libcr_c.a(_cr_sbrk.o)
__data_section_table                              ./startup/startup_mimxrt1021.o
__data_section_table_end                          ./startup/startup_mimxrt1021.o
__end_of_heap                                     /usr/local/mcuxpressoide-11.1.0_3209/ide/plugins/com.nxp.mcuxpresso.tools.linux_11.1.0.201909161352/tools/bin/../lib/gcc/arm-none-eabi/8.3.1/../../../../arm-none-eabi/lib/thumb/v7e-m+dp/hard/libcr_c.a(__init_alloc.o)
                                                  /usr/local/mcuxpressoide-11.1.0_3209/ide/plugins/com.nxp.mcuxpresso.tools.linux_11.1.0.201909161352/tools/bin/../lib/gcc/arm-none-eabi/8.3.1/../../../../arm-none-eabi/lib/thumb/v7e-m+dp/hard/libcr_c.a(_cr_sbrk.o)
__exit                                            /usr/local/mcuxpressoide-11.1.0_3209/ide/plugins/com.nxp.mcuxpresso.tools.linux_11.1.0.201909161352/tools/bin/../lib/gcc/arm-none-eabi/8.3.1/../../../../arm-none-eabi/lib/thumb/v7e-m+dp/hard/libcr_semihost_nf.a(__sys_appexit.o)
__flsbuf                                          /usr/local/mcuxpressoide-11.1.0_3209/ide/plugins/com.nxp.mcuxpresso.tools.linux_11.1.0.201909161352/tools/bin/../lib/gcc/arm-none-eabi/8.3.1/../../../../arm-none-eabi/lib/thumb/v7e-m+dp/hard/libcr_c.a(_deferredlazyseek.o)
                                                  /usr/local/mcuxpressoide-11.1.0_3209/ide/plugins/com.nxp.mcuxpresso.tools.linux_11.1.0.201909161352/tools/bin/../lib/gcc/arm-none-eabi/8.3.1/../../../../arm-none-eabi/lib/thumb/v7e-m+dp/hard/libcr_c.a(printf.o)
__heaps                                           /usr/local/mcuxpressoide-11.1.0_3209/ide/plugins/com.nxp.mcuxpresso.tools.linux_11.1.0.201909161352/tools/bin/../lib/gcc/arm-none-eabi/8.3.1/../../../../arm-none-eabi/lib/thumb/v7e-m+dp/hard/libcr_c.a(__init_alloc.o)
                                                  /usr/local/mcuxpressoide-11.1.0_3209/ide/plugins/com.nxp.mcuxpresso.tools.linux_11.1.0.201909161352/tools/bin/../lib/gcc/arm-none-eabi/8.3.1/../../../../arm-none-eabi/lib/thumb/v7e-m+dp/hard/libcr_c.a(alloc.o)
__main                                            /usr/local/mcuxpressoide-11.1.0_3209/ide/plugins/com.nxp.mcuxpresso.tools.linux_11.1.0.201909161352/tools/bin/../lib/gcc/arm-none-eabi/8.3.1/../../../../arm-none-eabi/lib/thumb/v7e-m+dp/hard/libcr_semihost_nf.a(_cr__main.o)
                                                  ./startup/startup_mimxrt1021.o
__num_Ciob_streams                                /usr/local/mcuxpressoide-11.1.0_3209/ide/plugins/com.nxp.mcuxpresso.tools.linux_11.1.0.201909161352/tools/bin/../lib/gcc/arm-none-eabi/8.3.1/../../../../arm-none-eabi/lib/thumb/v7e-m+dp/hard/libcr_semihost_nf.a(__ciob.o)
                                                  /usr/local/mcuxpressoide-11.1.0_3209/ide/plugins/com.nxp.mcuxpresso.tools.linux_11.1.0.201909161352/tools/bin/../lib/gcc/arm-none-eabi/8.3.1/../../../../arm-none-eabi/lib/thumb/v7e-m+dp/hard/libcr_c.a(fflush.o)
                                                  /usr/local/mcuxpressoide-11.1.0_3209/ide/plugins/com.nxp.mcuxpresso.tools.linux_11.1.0.201909161352/tools/bin/../lib/gcc/arm-none-eabi/8.3.1/../../../../arm-none-eabi/lib/thumb/v7e-m+dp/hard/libcr_c.a(initio.o)
__sys_appexit                                     /usr/local/mcuxpressoide-11.1.0_3209/ide/plugins/com.nxp.mcuxpresso.tools.linux_11.1.0.201909161352/tools/bin/../lib/gcc/arm-none-eabi/8.3.1/../../../../arm-none-eabi/lib/thumb/v7e-m+dp/hard/libcr_semihost_nf.a(__sys_appexit.o)
                                                  /usr/local/mcuxpressoide-11.1.0_3209/ide/plugins/com.nxp.mcuxpresso.tools.linux_11.1.0.201909161352/tools/bin/../lib/gcc/arm-none-eabi/8.3.1/../../../../arm-none-eabi/lib/thumb/v7e-m+dp/hard/libcr_c.a(alloc.o)
__sys_close                                       /usr/local/mcuxpressoide-11.1.0_3209/ide/plugins/com.nxp.mcuxpresso.tools.linux_11.1.0.201909161352/tools/bin/../lib/gcc/arm-none-eabi/8.3.1/../../../../arm-none-eabi/lib/thumb/v7e-m+dp/hard/libcr_semihost_nf.a(__sys_close.o)
                                                  /usr/local/mcuxpressoide-11.1.0_3209/ide/plugins/com.nxp.mcuxpresso.tools.linux_11.1.0.201909161352/tools/bin/../lib/gcc/arm-none-eabi/8.3.1/../../../../arm-none-eabi/lib/thumb/v7e-m+dp/hard/libcr_c.a(fclose.o)
__sys_flen                                        /usr/local/mcuxpressoide-11.1.0_3209/ide/plugins/com.nxp.mcuxpresso.tools.linux_11.1.0.201909161352/tools/bin/../lib/gcc/arm-none-eabi/8.3.1/../../../../arm-none-eabi/lib/thumb/v7e-m+dp/hard/libcr_semihost_nf.a(__sys_flen.o)
                                                  /usr/local/mcuxpressoide-11.1.0_3209/ide/plugins/com.nxp.mcuxpresso.tools.linux_11.1.0.201909161352/tools/bin/../lib/gcc/arm-none-eabi/8.3.1/../../../../arm-none-eabi/lib/thumb/v7e-m+dp/hard/libcr_c.a(fseek.o)
                                                  /usr/local/mcuxpressoide-11.1.0_3209/ide/plugins/com.nxp.mcuxpresso.tools.linux_11.1.0.201909161352/tools/bin/../lib/gcc/arm-none-eabi/8.3.1/../../../../arm-none-eabi/lib/thumb/v7e-m+dp/hard/libcr_c.a(_writebuf.o)
__sys_istty                                       /usr/local/mcuxpressoide-11.1.0_3209/ide/plugins/com.nxp.mcuxpresso.tools.linux_11.1.0.201909161352/tools/bin/../lib/gcc/arm-none-eabi/8.3.1/../../../../arm-none-eabi/lib/thumb/v7e-m+dp/hard/libcr_semihost_nf.a(__sys_istty.o)
                                                  /usr/local/mcuxpressoide-11.1.0_3209/ide/plugins/com.nxp.mcuxpresso.tools.linux_11.1.0.201909161352/tools/bin/../lib/gcc/arm-none-eabi/8.3.1/../../../../arm-none-eabi/lib/thumb/v7e-m+dp/hard/libcr_c.a(fseek.o)
                                                  /usr/local/mcuxpressoide-11.1.0_3209/ide/plugins/com.nxp.mcuxpresso.tools.linux_11.1.0.201909161352/tools/bin/../lib/gcc/arm-none-eabi/8.3.1/../../../../arm-none-eabi/lib/thumb/v7e-m+dp/hard/libcr_c.a(_deferredlazyseek.o)
__sys_remove                                      /usr/local/mcuxpressoide-11.1.0_3209/ide/plugins/com.nxp.mcuxpresso.tools.linux_11.1.0.201909161352/tools/bin/../lib/gcc/arm-none-eabi/8.3.1/../../../../arm-none-eabi/lib/thumb/v7e-m+dp/hard/libcr_semihost_nf.a(__sys_remove.o)
                                                  /usr/local/mcuxpressoide-11.1.0_3209/ide/plugins/com.nxp.mcuxpresso.tools.linux_11.1.0.201909161352/tools/bin/../lib/gcc/arm-none-eabi/8.3.1/../../../../arm-none-eabi/lib/thumb/v7e-m+dp/hard/libcr_c.a(remove.o)
__sys_rename                                      /usr/local/mcuxpressoide-11.1.0_3209/ide/plugins/com.nxp.mcuxpresso.tools.linux_11.1.0.201909161352/tools/bin/../lib/gcc/arm-none-eabi/8.3.1/../../../../arm-none-eabi/lib/thumb/v7e-m+dp/hard/libcr_semihost_nf.a(__sys_rename.o)
                                                  /usr/local/mcuxpressoide-11.1.0_3209/ide/plugins/com.nxp.mcuxpresso.tools.linux_11.1.0.201909161352/tools/bin/../lib/gcc/arm-none-eabi/8.3.1/../../../../arm-none-eabi/lib/thumb/v7e-m+dp/hard/libcr_c.a(remove.o)
__sys_seek                                        /usr/local/mcuxpressoide-11.1.0_3209/ide/plugins/com.nxp.mcuxpresso.tools.linux_11.1.0.201909161352/tools/bin/../lib/gcc/arm-none-eabi/8.3.1/../../../../arm-none-eabi/lib/thumb/v7e-m+dp/hard/libcr_semihost_nf.a(__sys_seek.o)
                                                  /usr/local/mcuxpressoide-11.1.0_3209/ide/plugins/com.nxp.mcuxpresso.tools.linux_11.1.0.201909161352/tools/bin/../lib/gcc/arm-none-eabi/8.3.1/../../../../arm-none-eabi/lib/thumb/v7e-m+dp/hard/libcr_c.a(_writebuf.o)
__sys_tmpnam                                      /usr/local/mcuxpressoide-11.1.0_3209/ide/plugins/com.nxp.mcuxpresso.tools.linux_11.1.0.201909161352/tools/bin/../lib/gcc/arm-none-eabi/8.3.1/../../../../arm-none-eabi/lib/thumb/v7e-m+dp/hard/libcr_semihost_nf.a(__sys_tmpnam.o)
                                                  /usr/local/mcuxpressoide-11.1.0_3209/ide/plugins/com.nxp.mcuxpresso.tools.linux_11.1.0.201909161352/tools/bin/../lib/gcc/arm-none-eabi/8.3.1/../../../../arm-none-eabi/lib/thumb/v7e-m+dp/hard/libcr_c.a(fclose.o)
__sys_write                                       /usr/local/mcuxpressoide-11.1.0_3209/ide/plugins/com.nxp.mcuxpresso.tools.linux_11.1.0.201909161352/tools/bin/../lib/gcc/arm-none-eabi/8.3.1/../../../../arm-none-eabi/lib/thumb/v7e-m+dp/hard/libcr_semihost_nf.a(__sys_write.o)
                                                  /usr/local/mcuxpressoide-11.1.0_3209/ide/plugins/com.nxp.mcuxpresso.tools.linux_11.1.0.201909161352/tools/bin/../lib/gcc/arm-none-eabi/8.3.1/../../../../arm-none-eabi/lib/thumb/v7e-m+dp/hard/libcr_c.a(_writebuf.o)
                                                  /usr/local/mcuxpressoide-11.1.0_3209/ide/plugins/com.nxp.mcuxpresso.tools.linux_11.1.0.201909161352/tools/bin/../lib/gcc/arm-none-eabi/8.3.1/../../../../arm-none-eabi/lib/thumb/v7e-m+dp/hard/libcr_c.a(printf.o)
                                                  /usr/local/mcuxpressoide-11.1.0_3209/ide/plugins/com.nxp.mcuxpresso.tools.linux_11.1.0.201909161352/tools/bin/../lib/gcc/arm-none-eabi/8.3.1/../../../../arm-none-eabi/lib/thumb/v7e-m+dp/hard/libcr_c.a(alloc.o)
__top_NCACHE_REGION                               ./board/board.o
__vfprintf                                        /usr/local/mcuxpressoide-11.1.0_3209/ide/plugins/com.nxp.mcuxpresso.tools.linux_11.1.0.201909161352/tools/bin/../lib/gcc/arm-none-eabi/8.3.1/../../../../arm-none-eabi/lib/thumb/v7e-m+dp/hard/libcr_c.a(printf.o)
_deferredlazyseek                                 /usr/local/mcuxpressoide-11.1.0_3209/ide/plugins/com.nxp.mcuxpresso.tools.linux_11.1.0.201909161352/tools/bin/../lib/gcc/arm-none-eabi/8.3.1/../../../../arm-none-eabi/lib/thumb/v7e-m+dp/hard/libcr_c.a(_deferredlazyseek.o)
                                                  /usr/local/mcuxpressoide-11.1.0_3209/ide/plugins/com.nxp.mcuxpresso.tools.linux_11.1.0.201909161352/tools/bin/../lib/gcc/arm-none-eabi/8.3.1/../../../../arm-none-eabi/lib/thumb/v7e-m+dp/hard/libcr_c.a(_do_fflush.o)
_do_fflush                                        /usr/local/mcuxpressoide-11.1.0_3209/ide/plugins/com.nxp.mcuxpresso.tools.linux_11.1.0.201909161352/tools/bin/../lib/gcc/arm-none-eabi/8.3.1/../../../../arm-none-eabi/lib/thumb/v7e-m+dp/hard/libcr_c.a(_do_fflush.o)
                                                  /usr/local/mcuxpressoide-11.1.0_3209/ide/plugins/com.nxp.mcuxpresso.tools.linux_11.1.0.201909161352/tools/bin/../lib/gcc/arm-none-eabi/8.3.1/../../../../arm-none-eabi/lib/thumb/v7e-m+dp/hard/libcr_c.a(fflush.o)
_fdopen                                           /usr/local/mcuxpressoide-11.1.0_3209/ide/plugins/com.nxp.mcuxpresso.tools.linux_11.1.0.201909161352/tools/bin/../lib/gcc/arm-none-eabi/8.3.1/../../../../arm-none-eabi/lib/thumb/v7e-m+dp/hard/libcr_c.a(_fdopen.o)
                                                  /usr/local/mcuxpressoide-11.1.0_3209/ide/plugins/com.nxp.mcuxpresso.tools.linux_11.1.0.201909161352/tools/bin/../lib/gcc/arm-none-eabi/8.3.1/../../../../arm-none-eabi/lib/thumb/v7e-m+dp/hard/libcr_c.a(initio.o)
_fflush                                           /usr/local/mcuxpressoide-11.1.0_3209/ide/plugins/com.nxp.mcuxpresso.tools.linux_11.1.0.201909161352/tools/bin/../lib/gcc/arm-none-eabi/8.3.1/../../../../arm-none-eabi/lib/thumb/v7e-m+dp/hard/libcr_c.a(_fflush.o)
                                                  /usr/local/mcuxpressoide-11.1.0_3209/ide/plugins/com.nxp.mcuxpresso.tools.linux_11.1.0.201909161352/tools/bin/../lib/gcc/arm-none-eabi/8.3.1/../../../../arm-none-eabi/lib/thumb/v7e-m+dp/hard/libcr_c.a(_do_fflush.o)
                                                  /usr/local/mcuxpressoide-11.1.0_3209/ide/plugins/com.nxp.mcuxpresso.tools.linux_11.1.0.201909161352/tools/bin/../lib/gcc/arm-none-eabi/8.3.1/../../../../arm-none-eabi/lib/thumb/v7e-m+dp/hard/libcr_c.a(_deferredlazyseek.o)
_fprintf                                          /usr/local/mcuxpressoide-11.1.0_3209/ide/plugins/com.nxp.mcuxpresso.tools.linux_11.1.0.201909161352/tools/bin/../lib/gcc/arm-none-eabi/8.3.1/../../../../arm-none-eabi/lib/thumb/v7e-m+dp/hard/libcr_c.a(printf.o)
_init_alloc                                       /usr/local/mcuxpressoide-11.1.0_3209/ide/plugins/com.nxp.mcuxpresso.tools.linux_11.1.0.201909161352/tools/bin/../lib/gcc/arm-none-eabi/8.3.1/../../../../arm-none-eabi/lib/thumb/v7e-m+dp/hard/libcr_c.a(__init_alloc.o)
_initio                                           /usr/local/mcuxpressoide-11.1.0_3209/ide/plugins/com.nxp.mcuxpresso.tools.linux_11.1.0.201909161352/tools/bin/../lib/gcc/arm-none-eabi/8.3.1/../../../../arm-none-eabi/lib/thumb/v7e-m+dp/hard/libcr_c.a(initio.o)
                                                  /usr/local/mcuxpressoide-11.1.0_3209/ide/plugins/com.nxp.mcuxpresso.tools.linux_11.1.0.201909161352/tools/bin/../lib/gcc/arm-none-eabi/8.3.1/../../../../arm-none-eabi/lib/thumb/v7e-m+dp/hard/libcr_semihost_nf.a(_cr__main.o)
_printf                                           /usr/local/mcuxpressoide-11.1.0_3209/ide/plugins/com.nxp.mcuxpresso.tools.linux_11.1.0.201909161352/tools/bin/../lib/gcc/arm-none-eabi/8.3.1/../../../../arm-none-eabi/lib/thumb/v7e-m+dp/hard/libcr_c.a(printf.o)
                                                  ./source/qtmr_inputcapture_outputpwm.o
                                                  ./utilities/fsl_assert.o
_printf_char                                      /usr/local/mcuxpressoide-11.1.0_3209/ide/plugins/com.nxp.mcuxpresso.tools.linux_11.1.0.201909161352/tools/bin/../lib/gcc/arm-none-eabi/8.3.1/../../../../arm-none-eabi/lib/thumb/v7e-m+dp/hard/libcr_c.a(printf.o)
_pvHeapLimit                                      /usr/local/mcuxpressoide-11.1.0_3209/ide/plugins/com.nxp.mcuxpresso.tools.linux_11.1.0.201909161352/tools/bin/../lib/gcc/arm-none-eabi/8.3.1/../../../../arm-none-eabi/lib/thumb/v7e-m+dp/hard/libcr_c.a(_cr_check_heap.o)
_pvHeapStart                                      /usr/local/mcuxpressoide-11.1.0_3209/ide/plugins/com.nxp.mcuxpresso.tools.linux_11.1.0.201909161352/tools/bin/../lib/gcc/arm-none-eabi/8.3.1/../../../../arm-none-eabi/lib/thumb/v7e-m+dp/hard/libcr_c.a(_cr_sbrk.o)
_sbrk                                             /usr/local/mcuxpressoide-11.1.0_3209/ide/plugins/com.nxp.mcuxpresso.tools.linux_11.1.0.201909161352/tools/bin/../lib/gcc/arm-none-eabi/8.3.1/../../../../arm-none-eabi/lib/thumb/v7e-m+dp/hard/libcr_c.a(_cr_sbrk.o)
                                                  /usr/local/mcuxpressoide-11.1.0_3209/ide/plugins/com.nxp.mcuxpresso.tools.linux_11.1.0.201909161352/tools/bin/../lib/gcc/arm-none-eabi/8.3.1/../../../../arm-none-eabi/lib/thumb/v7e-m+dp/hard/libcr_c.a(alloc.o)
_snprintf                                         /usr/local/mcuxpressoide-11.1.0_3209/ide/plugins/com.nxp.mcuxpresso.tools.linux_11.1.0.201909161352/tools/bin/../lib/gcc/arm-none-eabi/8.3.1/../../../../arm-none-eabi/lib/thumb/v7e-m+dp/hard/libcr_c.a(printf.o)
_sprintf                                          /usr/local/mcuxpressoide-11.1.0_3209/ide/plugins/com.nxp.mcuxpresso.tools.linux_11.1.0.201909161352/tools/bin/../lib/gcc/arm-none-eabi/8.3.1/../../../../arm-none-eabi/lib/thumb/v7e-m+dp/hard/libcr_c.a(printf.o)
_terminateio                                      /usr/local/mcuxpressoide-11.1.0_3209/ide/plugins/com.nxp.mcuxpresso.tools.linux_11.1.0.201909161352/tools/bin/../lib/gcc/arm-none-eabi/8.3.1/../../../../arm-none-eabi/lib/thumb/v7e-m+dp/hard/libcr_c.a(initio.o)
_vStackTop                                        ./startup/startup_mimxrt1021.o
_vfprintf                                         /usr/local/mcuxpressoide-11.1.0_3209/ide/plugins/com.nxp.mcuxpresso.tools.linux_11.1.0.201909161352/tools/bin/../lib/gcc/arm-none-eabi/8.3.1/../../../../arm-none-eabi/lib/thumb/v7e-m+dp/hard/libcr_c.a(printf.o)
_vprintf                                          /usr/local/mcuxpressoide-11.1.0_3209/ide/plugins/com.nxp.mcuxpresso.tools.linux_11.1.0.201909161352/tools/bin/../lib/gcc/arm-none-eabi/8.3.1/../../../../arm-none-eabi/lib/thumb/v7e-m+dp/hard/libcr_c.a(printf.o)
_vsnprintf                                        /usr/local/mcuxpressoide-11.1.0_3209/ide/plugins/com.nxp.mcuxpresso.tools.linux_11.1.0.201909161352/tools/bin/../lib/gcc/arm-none-eabi/8.3.1/../../../../arm-none-eabi/lib/thumb/v7e-m+dp/hard/libcr_c.a(printf.o)
_vsprintf                                         /usr/local/mcuxpressoide-11.1.0_3209/ide/plugins/com.nxp.mcuxpresso.tools.linux_11.1.0.201909161352/tools/bin/../lib/gcc/arm-none-eabi/8.3.1/../../../../arm-none-eabi/lib/thumb/v7e-m+dp/hard/libcr_c.a(printf.o)
boot_data                                         ./xip/fsl_flexspi_nor_boot.o
bss_init                                          ./startup/startup_mimxrt1021.o
calloc                                            /usr/local/mcuxpressoide-11.1.0_3209/ide/plugins/com.nxp.mcuxpresso.tools.linux_11.1.0.201909161352/tools/bin/../lib/gcc/arm-none-eabi/8.3.1/../../../../arm-none-eabi/lib/thumb/v7e-m+dp/hard/libcr_c.a(alloc.o)
data_init                                         ./startup/startup_mimxrt1021.o
dcd_data                                          ./xip/evkmimxrt1020_sdram_ini_dcd.o
enetPllConfig_BOARD_BootClockRUN                  ./board/clock_config.o
errno                                             /usr/local/mcuxpressoide-11.1.0_3209/ide/plugins/com.nxp.mcuxpresso.tools.linux_11.1.0.201909161352/tools/bin/../lib/gcc/arm-none-eabi/8.3.1/../../../../arm-none-eabi/lib/thumb/v7e-m+dp/hard/libcr_c.a(errno.o)
                                                  /usr/local/mcuxpressoide-11.1.0_3209/ide/plugins/com.nxp.mcuxpresso.tools.linux_11.1.0.201909161352/tools/bin/../lib/gcc/arm-none-eabi/8.3.1/../../../../arm-none-eabi/lib/thumb/v7e-m+dp/hard/libcr_c.a(ftell.o)
                                                  /usr/local/mcuxpressoide-11.1.0_3209/ide/plugins/com.nxp.mcuxpresso.tools.linux_11.1.0.201909161352/tools/bin/../lib/gcc/arm-none-eabi/8.3.1/../../../../arm-none-eabi/lib/thumb/v7e-m+dp/hard/libcr_c.a(_cr_sbrk.o)
fclose                                            /usr/local/mcuxpressoide-11.1.0_3209/ide/plugins/com.nxp.mcuxpresso.tools.linux_11.1.0.201909161352/tools/bin/../lib/gcc/arm-none-eabi/8.3.1/../../../../arm-none-eabi/lib/thumb/v7e-m+dp/hard/libcr_c.a(fclose.o)
                                                  /usr/local/mcuxpressoide-11.1.0_3209/ide/plugins/com.nxp.mcuxpresso.tools.linux_11.1.0.201909161352/tools/bin/../lib/gcc/arm-none-eabi/8.3.1/../../../../arm-none-eabi/lib/thumb/v7e-m+dp/hard/libcr_c.a(_fdopen.o)
                                                  /usr/local/mcuxpressoide-11.1.0_3209/ide/plugins/com.nxp.mcuxpresso.tools.linux_11.1.0.201909161352/tools/bin/../lib/gcc/arm-none-eabi/8.3.1/../../../../arm-none-eabi/lib/thumb/v7e-m+dp/hard/libcr_c.a(initio.o)
fflush                                            /usr/local/mcuxpressoide-11.1.0_3209/ide/plugins/com.nxp.mcuxpresso.tools.linux_11.1.0.201909161352/tools/bin/../lib/gcc/arm-none-eabi/8.3.1/../../../../arm-none-eabi/lib/thumb/v7e-m+dp/hard/libcr_c.a(fflush.o)
                                                  /usr/local/mcuxpressoide-11.1.0_3209/ide/plugins/com.nxp.mcuxpresso.tools.linux_11.1.0.201909161352/tools/bin/../lib/gcc/arm-none-eabi/8.3.1/../../../../arm-none-eabi/lib/thumb/v7e-m+dp/hard/libcr_c.a(fclose.o)
free                                              /usr/local/mcuxpressoide-11.1.0_3209/ide/plugins/com.nxp.mcuxpresso.tools.linux_11.1.0.201909161352/tools/bin/../lib/gcc/arm-none-eabi/8.3.1/../../../../arm-none-eabi/lib/thumb/v7e-m+dp/hard/libcr_c.a(alloc.o)
                                                  /usr/local/mcuxpressoide-11.1.0_3209/ide/plugins/com.nxp.mcuxpresso.tools.linux_11.1.0.201909161352/tools/bin/../lib/gcc/arm-none-eabi/8.3.1/../../../../arm-none-eabi/lib/thumb/v7e-m+dp/hard/libcr_c.a(fclose.o)
                                                  /usr/local/mcuxpressoide-11.1.0_3209/ide/plugins/com.nxp.mcuxpresso.tools.linux_11.1.0.201909161352/tools/bin/../lib/gcc/arm-none-eabi/8.3.1/../../../../arm-none-eabi/lib/thumb/v7e-m+dp/hard/libcr_c.a(printf.o)
                                                  ./drivers/fsl_common.o
fseek                                             /usr/local/mcuxpressoide-11.1.0_3209/ide/plugins/com.nxp.mcuxpresso.tools.linux_11.1.0.201909161352/tools/bin/../lib/gcc/arm-none-eabi/8.3.1/../../../../arm-none-eabi/lib/thumb/v7e-m+dp/hard/libcr_c.a(fseek.o)
                                                  /usr/local/mcuxpressoide-11.1.0_3209/ide/plugins/com.nxp.mcuxpresso.tools.linux_11.1.0.201909161352/tools/bin/../lib/gcc/arm-none-eabi/8.3.1/../../../../arm-none-eabi/lib/thumb/v7e-m+dp/hard/libcr_c.a(_do_fflush.o)
                                                  /usr/local/mcuxpressoide-11.1.0_3209/ide/plugins/com.nxp.mcuxpresso.tools.linux_11.1.0.201909161352/tools/bin/../lib/gcc/arm-none-eabi/8.3.1/../../../../arm-none-eabi/lib/thumb/v7e-m+dp/hard/libcr_c.a(_fdopen.o)
                                                  /usr/local/mcuxpressoide-11.1.0_3209/ide/plugins/com.nxp.mcuxpresso.tools.linux_11.1.0.201909161352/tools/bin/../lib/gcc/arm-none-eabi/8.3.1/../../../../arm-none-eabi/lib/thumb/v7e-m+dp/hard/libcr_c.a(_deferredlazyseek.o)
ftell                                             /usr/local/mcuxpressoide-11.1.0_3209/ide/plugins/com.nxp.mcuxpresso.tools.linux_11.1.0.201909161352/tools/bin/../lib/gcc/arm-none-eabi/8.3.1/../../../../arm-none-eabi/lib/thumb/v7e-m+dp/hard/libcr_c.a(ftell.o)
                                                  /usr/local/mcuxpressoide-11.1.0_3209/ide/plugins/com.nxp.mcuxpresso.tools.linux_11.1.0.201909161352/tools/bin/../lib/gcc/arm-none-eabi/8.3.1/../../../../arm-none-eabi/lib/thumb/v7e-m+dp/hard/libcr_c.a(fseek.o)
g_lpspiDummyData                                  ./drivers/fsl_lpspi.o
g_pfnVectors                                      ./startup/startup_mimxrt1021.o
                                                  ./device/system_MIMXRT1021.o
g_rtcXtalFreq                                     ./drivers/fsl_clock.o
                                                  ./board/clock_config.o
g_serialHandle                                    ./utilities/fsl_debug_console.o
g_xtalFreq                                        ./drivers/fsl_clock.o
                                                  ./board/clock_config.o
                                                  ./board/board.o
image_vector_table                                ./xip/fsl_flexspi_nor_boot.o
main                                              ./source/qtmr_inputcapture_outputpwm.o
                                                  /usr/local/mcuxpressoide-11.1.0_3209/ide/plugins/com.nxp.mcuxpresso.tools.linux_11.1.0.201909161352/tools/bin/../lib/gcc/arm-none-eabi/8.3.1/../../../../arm-none-eabi/lib/thumb/v7e-m+dp/hard/libcr_semihost_nf.a(_cr__main.o)
malloc                                            /usr/local/mcuxpressoide-11.1.0_3209/ide/plugins/com.nxp.mcuxpresso.tools.linux_11.1.0.201909161352/tools/bin/../lib/gcc/arm-none-eabi/8.3.1/../../../../arm-none-eabi/lib/thumb/v7e-m+dp/hard/libcr_c.a(alloc.o)
                                                  /usr/local/mcuxpressoide-11.1.0_3209/ide/plugins/com.nxp.mcuxpresso.tools.linux_11.1.0.201909161352/tools/bin/../lib/gcc/arm-none-eabi/8.3.1/../../../../arm-none-eabi/lib/thumb/v7e-m+dp/hard/libcr_c.a(printf.o)
                                                  ./drivers/fsl_common.o
memcpy                                            /usr/local/mcuxpressoide-11.1.0_3209/ide/plugins/com.nxp.mcuxpresso.tools.linux_11.1.0.201909161352/tools/bin/../lib/gcc/arm-none-eabi/8.3.1/../../../../arm-none-eabi/lib/thumb/v7e-m+dp/hard/libcr_c.a(memcpy.o)
                                                  /usr/local/mcuxpressoide-11.1.0_3209/ide/plugins/com.nxp.mcuxpresso.tools.linux_11.1.0.201909161352/tools/bin/../lib/gcc/arm-none-eabi/8.3.1/../../../../arm-none-eabi/lib/thumb/v7e-m+dp/hard/libcr_c.a(alloc.o)
memset                                            /usr/local/mcuxpressoide-11.1.0_3209/ide/plugins/com.nxp.mcuxpresso.tools.linux_11.1.0.201909161352/tools/bin/../lib/gcc/arm-none-eabi/8.3.1/../../../../arm-none-eabi/lib/thumb/v7e-m+dp/hard/libcr_c.a(memset.o)
                                                  /usr/local/mcuxpressoide-11.1.0_3209/ide/plugins/com.nxp.mcuxpresso.tools.linux_11.1.0.201909161352/tools/bin/../lib/gcc/arm-none-eabi/8.3.1/../../../../arm-none-eabi/lib/thumb/v7e-m+dp/hard/libcr_c.a(fclose.o)
                                                  /usr/local/mcuxpressoide-11.1.0_3209/ide/plugins/com.nxp.mcuxpresso.tools.linux_11.1.0.201909161352/tools/bin/../lib/gcc/arm-none-eabi/8.3.1/../../../../arm-none-eabi/lib/thumb/v7e-m+dp/hard/libcr_c.a(printf.o)
                                                  /usr/local/mcuxpressoide-11.1.0_3209/ide/plugins/com.nxp.mcuxpresso.tools.linux_11.1.0.201909161352/tools/bin/../lib/gcc/arm-none-eabi/8.3.1/../../../../arm-none-eabi/lib/thumb/v7e-m+dp/hard/libcr_c.a(alloc.o)
                                                  ./component/serial_manager/serial_manager.o
                                                  ./drivers/fsl_qtmr.o
                                                  ./drivers/fsl_lpuart.o
                                                  ./drivers/fsl_lpspi.o
qspiflash_config                                  ./xip/evkmimxrt1020_flexspi_nor_config.o
qtmrIsrFlag                                       ./source/qtmr_inputcapture_outputpwm.o
realloc                                           /usr/local/mcuxpressoide-11.1.0_3209/ide/plugins/com.nxp.mcuxpresso.tools.linux_11.1.0.201909161352/tools/bin/../lib/gcc/arm-none-eabi/8.3.1/../../../../arm-none-eabi/lib/thumb/v7e-m+dp/hard/libcr_c.a(alloc.o)
remove                                            /usr/local/mcuxpressoide-11.1.0_3209/ide/plugins/com.nxp.mcuxpresso.tools.linux_11.1.0.201909161352/tools/bin/../lib/gcc/arm-none-eabi/8.3.1/../../../../arm-none-eabi/lib/thumb/v7e-m+dp/hard/libcr_c.a(remove.o)
                                                  /usr/local/mcuxpressoide-11.1.0_3209/ide/plugins/com.nxp.mcuxpresso.tools.linux_11.1.0.201909161352/tools/bin/../lib/gcc/arm-none-eabi/8.3.1/../../../../arm-none-eabi/lib/thumb/v7e-m+dp/hard/libcr_c.a(fclose.o)
rename                                            /usr/local/mcuxpressoide-11.1.0_3209/ide/plugins/com.nxp.mcuxpresso.tools.linux_11.1.0.201909161352/tools/bin/../lib/gcc/arm-none-eabi/8.3.1/../../../../arm-none-eabi/lib/thumb/v7e-m+dp/hard/libcr_c.a(remove.o)
setvbuf                                           /usr/local/mcuxpressoide-11.1.0_3209/ide/plugins/com.nxp.mcuxpresso.tools.linux_11.1.0.201909161352/tools/bin/../lib/gcc/arm-none-eabi/8.3.1/../../../../arm-none-eabi/lib/thumb/v7e-m+dp/hard/libcr_c.a(setvbuf.o)
                                                  /usr/local/mcuxpressoide-11.1.0_3209/ide/plugins/com.nxp.mcuxpresso.tools.linux_11.1.0.201909161352/tools/bin/../lib/gcc/arm-none-eabi/8.3.1/../../../../arm-none-eabi/lib/thumb/v7e-m+dp/hard/libcr_c.a(initio.o)
strlen                                            /usr/local/mcuxpressoide-11.1.0_3209/ide/plugins/com.nxp.mcuxpresso.tools.linux_11.1.0.201909161352/tools/bin/../lib/gcc/arm-none-eabi/8.3.1/../../../../arm-none-eabi/lib/thumb/v7e-m+dp/hard/libcr_c.a(strlen.o)
                                                  /usr/local/mcuxpressoide-11.1.0_3209/ide/plugins/com.nxp.mcuxpresso.tools.linux_11.1.0.201909161352/tools/bin/../lib/gcc/arm-none-eabi/8.3.1/../../../../arm-none-eabi/lib/thumb/v7e-m+dp/hard/libcr_c.a(remove.o)
                                                  /usr/local/mcuxpressoide-11.1.0_3209/ide/plugins/com.nxp.mcuxpresso.tools.linux_11.1.0.201909161352/tools/bin/../lib/gcc/arm-none-eabi/8.3.1/../../../../arm-none-eabi/lib/thumb/v7e-m+dp/hard/libcr_c.a(printf.o)
                                                  ./utilities/fsl_str.o
sysPllConfig_BOARD_BootClockRUN                   ./board/clock_config.o
usb1PllConfig_BOARD_BootClockRUN                  ./board/clock_config.o
